******************************************************************************
               TMS320C6x Linker Unix v8.1.3                    
******************************************************************************
>> Linked Thu Apr 26 16:14:07 2018

OUTPUT FILE NAME:   <xwr16xx_mmw_demo_dss.xe674>
ENTRY POINT SYMBOL: "_c_int00"  address: 007fede0


MEMORY CONFIGURATION

         name            origin    length      used     unused   attr    fill
----------------------  --------  ---------  --------  --------  ----  --------
PAGE 0:
  L2SRAM_UMAP1          007e0000   00020000  00020000  00000000  RWIX
  L2SRAM_UMAP0          00800000   00020000  0001cfa1  0000305f  RWIX
  L1PSRAM               00e00000   00004000  00003b80  00000480  RWIX
  L1DSRAM               00f00000   00004000  00004000  00000000  RWIX
  L3SRAM                20000000   000c0000  00004400  000bbc00  RWIX
  HSRAM                 21080000   00008000  00008000  00000000  RWIX

PAGE 1:
  L3SRAM                20000000   000c0000  000c0000  00000000  RWIX


SEGMENT ALLOCATION MAP

run origin  load origin   length   init length attrs members
----------  ----------- ---------- ----------- ----- -------
007e0000    007e0000    00025620   00025620    r-x
  007e0000    007e0000    00000200   00000200    r-x .vecs
  007e0200    007e0200    0001fe00   0001fe00    r-x .text.1
  00800000    00800000    00005620   00005620    r-x .text.2
00805620    00805620    00011c00   00000000    rw-
  00805620    00805620    0000cc00   00000000    rw- .l2data
  00812220    00812220    00005000   00000000    rw- systemHeap
00817220    00817220    00002b31   00002b31    r--
  00817220    00817220    00002b31   00002b31    r-- .const
00819d58    00819d58    0000164c   00000000    rw-
  00819d58    00819d58    0000164c   00000000    rw- .far
0081b3a8    0081b3a8    000018f8   000011f4    rw-
  0081b3a8    0081b3a8    000011f4   000011f4    rw- .fardata
  0081c5a0    0081c5a0    00000700   00000000    rw- .stack
0081cca0    0081cca0    000001d4   000001d4    r--
  0081cca0    0081cca0    000001d4   000001d4    r-- .switch
0081ce78    0081ce78    00000120   00000000    rw-
  0081ce78    0081ce78    00000120   00000000    rw- .cio
0081cf98    0081cf98    0000000c   0000000c    rw-
  0081cf98    0081cf98    0000000c   0000000c    rw- .neardata
0081cfa8    0081cfa8    00000010   00000010    r--
  0081cfa8    0081cfa8    00000010   00000010    r-- .ovly
00e00000    20000000    00003b80   00003b80    r-x
  00e00000    20000000    00003b80   00003b80    r-x .fastCode
00f00000    00f00000    00004000   00000000    rw-
  00f00000    00f00000    00004000   00000000    rw- .l1data
20003b80    20003b80    00000880   00000880    r-x
  20003b80    20003b80    00000880   00000880    r-x .overlay
21080000    21080000    00008000   00000000    rw-
  21080000    21080000    00008000   00000000    rw- .demoSharedMem
20000000    20000000    000c0000   00000000    rw-
  20000000    20000000    000c0000   00000000    rw- .l3data


SECTION ALLOCATION MAP

 output                                  attributes/
section   page    origin      length       input sections
--------  ----  ----------  ----------   ----------------
xdc.meta   0    00000000    00000108     COPY SECTION
                  00000000    00000108     dss_mmw_pe674.oe674 (xdc.meta)

xdc.noload 
*          0    00000000    00000000     COPY SECTION

.vecs      0    007e0000    00000200     
                  007e0000    00000200     dss_mmw_pe674.oe674 (.vecs)

.text.1    0    007e0200    0001fe00     
                  007e0200    00000bc0     dss_main.oe674 (.text:MmwDemo_parseProfileAndChirpConfig)
                  007e0dc0    000008a0     ti.targets.rts6000.ae674 : System.oe674 (.text:xdc_runtime_System_doPrint__I)
                  007e1660    000007c0     dss_main.oe674 (.text:MmwDemo_mboxReadTask)
                  007e1e20    00000700     sysbios.ae674 : BIOS.obj (.text:ti_sysbios_family_c64p_Exception_handler__I)
                  007e2520    000005c0     rts6740_elf.lib : divd.obj (.text:__c6xabi_divd)
                  007e2ae0    000005a0     dss_data_path.oe674 (.text:MmwDemo_dataPathConfigEdma)
                  007e3080    00000560     dss_data_path.oe674 (.text:MmwDemo_cfarPeakGroupingCfarQualified)
                  007e35e0    00000520     dss_main.oe674 (.text:MmwDemo_dssDataPathConfig)
                  007e3b00    00000500     libcbuff_xwr16xx.ae674 : cbuff.oe674 (.text:CBUFF_init)
                  007e4000    00000500     libhsiheader_xwr16xx.ae674 : hsiheader.oe674 (.text:HSIHeader_createHeader)
                  007e4500    00000500     dss_data_path.oe674 (.text:MmwDemo_dataPathConfigBuffers)
                  007e4a00    00000500     rx_ch_bias_measure.oe674 (.text:MmwDemo_rangeBiasRxChPhaseMeasure)
                  007e4f00    00000500     sysbios.ae674 : BIOS.obj (.text:ti_sysbios_knl_Semaphore_pend__E)
                  007e5400    000004e0                   : BIOS.obj (.text:ti_sysbios_knl_Event_pend__E)
                  007e58e0    000004c0     libcbuff_xwr16xx.ae674 : cbuff.oe674 (.text:CBUFF_createSession)
                  007e5da0    000004c0     sysbios.ae674 : BIOS.obj (.text:ti_sysbios_heaps_HeapMem_allocUnprotected__E)
                  007e6260    000004a0     libmmwave_xwr16xx.ae674 : mmwave_xwr16xx.oe674 (.text:MMWave_deviceExecuteFxn)
                  007e6700    00000480     dss_main.oe674 (.text:MmwDemo_dssSendProcessOutputToMSS)
                  007e6b80    00000460     dss_data_path.oe674 (.text:MmwDemo_gen_twiddle_fft16x16_fast)
                  007e6fe0    00000460     sysbios.ae674 : BIOS.obj (.text:ti_sysbios_heaps_HeapMem_freeUnprotected__E)
                  007e7440    00000420     libmailbox_xwr16xx.ae674 : mailbox.oe674 (.text:Mailbox_open)
                  007e7860    00000420     sysbios.ae674 : BIOS.obj (.text:ti_sysbios_knl_Task_Instance_finalize__E)
                  007e7c80    000003e0     libmmwavelink_xwr16xx.ae674 : rl_driver.oe674 (.text:rlDriverRxHdrRead)
                  007e8060    000003a0     libadcbuf_xwr16xx.ae674 : adcbuf_mmwave.oe674 (.text:ADCBUF_MMWave_control)
                  007e8400    000003a0     dss_data_path.oe674 (.text:MmwDemo_dcRangeSignatureCompensation)
                  007e87a0    00000360     libcbuff_xwr16xx.ae674 : cbuff.oe674 (.text:CBUFF_validateHWSessionCfg)
                  007e8b00    00000360     libcrc_xwr16xx.ae674 : crc.oe674 (.text:CRC_open)
                  007e8e60    00000340     libcbuff_xwr16xx.ae674 : cbuff_lvds.oe674 (.text:CBUFF_openLVDS)
                  007e91a0    00000340     dss_main.oe674 (.text:MmwDemo_dssDataPathTask)
                  007e94e0    00000320     libcbuff_xwr16xx.ae674 : cbuff_lvds.oe674 (.text:CBUFF_initLVDS)
                  007e9800    00000320     dss_data_path.oe674 (.text:MmwDemo_nearFieldCorrection)
                  007e9b20    00000320     sysbios.ae674 : BIOS.obj (.text:ti_sysbios_knl_Task_Instance_init__E)
                  007e9e40    00000300     libcbuff_xwr16xx.ae674 : cbuff.oe674 (.text:CBUFF_activateSession)
                  007ea140    00000300     dss_main.oe674 (.text:MmwDemo_dssDataPathReconfig)
                  007ea440    000002e0     libcbuff_xwr16xx.ae674 : cbuff_edma.oe674 (.text:CBUFF_configEDMA)
                  007ea720    000002e0     libedma_xwr16xx.ae674 : edma.oe674 (.text:EDMA_error_isr)
                  007eaa00    000002e0     libmmwavelink_xwr16xx.ae674 : rl_driver.oe674 (.text:rlDriverCmdInvoke)
                  007eace0    000002c0     dss_data_path.oe674 (.text:MmwDemo_genWindow)
                  007eafa0    000002c0     sysbios.ae674 : BIOS.obj (.text:ti_sysbios_knl_Task_sleep__E)
                  007eb260    000002a0     libcrc_xwr16xx.ae674 : crc.oe674 (.text:CRC_computeSignature)
                  007eb500    000002a0     dss_main.oe674 (.text:MmwDemo_dssDataPathInit)
                  007eb7a0    000002a0     rts6740_elf.lib : divf.obj (.text:__c6xabi_divf)
                  007eba40    00000280     libedma_xwr16xx.ae674 : edma.oe674 (.text:EDMA_configChannel)
                  007ebcc0    00000260                           : edma.oe674 (.text:EDMA_open)
                  007ebf20    00000260     rts6740_elf.lib : imath64.obj (.text:__c6xabi_divull)
                  007ec180    00000260     libmmwavelink_xwr16xx.ae674 : rl_driver.oe674 (.text:rlDriverMsgRead)
                  007ec3e0    00000260     sysbios.ae674 : BIOS.obj (.text:ti_sysbios_knl_Clock_workFunc__E)
                  007ec640    00000260     ti.targets.rts6000.ae674 : Startup.oe674 (.text:xdc_runtime_Startup_startMods__I)
                  007ec8a0    00000240     libedma_xwr16xx.ae674 : edma.oe674 (.text:EDMA_configErrorMonitoring)
                  007ecae0    00000240     libmmwave_xwr16xx.ae674 : mmwave_link.oe674 (.text:MMWave_startLink)
                  007ecd20    00000240     dss_main.oe674 (.text:MmwDemo_dssDataPathProcessEvents)
                  007ecf60    00000240     libmmwavelink_xwr16xx.ae674 : rl_driver.oe674 (.text:rlDriverCmdSendRetry)
                  007ed1a0    00000240                                 : rl_driver.oe674 (.text:rlDriverInit)
                  007ed3e0    00000240     rts6740_elf.lib : setvbuf.obj (.text:setvbuf)
                  007ed620    00000240     sysbios.ae674 : BIOS.obj (.text:ti_sysbios_knl_Event_post__E)
                  007ed860    00000240     ti.targets.rts6000.ae674 : Core-mem.oe674 (.text:xdc_runtime_Core_createObject__I)
                  007edaa0    00000240     dss_mmw_pe674.oe674 (.text:xdc_runtime_System_printfExtend__I)
                  007edce0    00000220     libcbuff_xwr16xx.ae674 : cbuff.oe674 (.text:CBUFF_deinit)
                  007edf00    00000220                            : cbuff_transfer.oe674 (.text:CBUFF_setupNonInterleaved_ADC)
                  007ee120    00000220     libedma_xwr16xx.ae674 : edma.oe674 (.text:EDMA_transferComplete_isr)
                  007ee340    00000220     libmailbox_xwr16xx.ae674 : mailbox.oe674 (.text:Mailbox_write)
                  007ee560    00000220     dss_data_path.oe674 (.text:MmwDemo_EDMA_CQTransferCompletionCallbackFxn)
                  007ee780    00000220     dss_main.oe674 (.text:MmwDemo_parseAdcBufCfg)
                  007ee9a0    00000220     rts6740_elf.lib : fputc.obj (.text:fputc)
                  007eebc0    00000220     sysbios.ae674 : BIOS.obj (.text:ti_sysbios_family_c64p_Hwi_dispatchCore__I)
                  007eede0    00000220                   : BIOS.obj (.text:ti_sysbios_heaps_HeapMem_Instance_init__E)
                  007ef000    00000220                   : BIOS.obj (.text:ti_sysbios_knl_Task_schedule__I)
                  007ef220    00000220                   : BIOS.obj (.text:ti_sysbios_utils_Load_updateThreadContexts__E)
                  007ef440    00000200     libcbuff_xwr16xx.ae674 : cbuff_transfer.oe674 (.text:CBUFF_setupNonInterleaved_MultiChirp_CP_ADC_CQ_USER)
                  007ef640    00000200     libmmwave_xwr16xx.ae674 : mmwave_link.oe674 (.text:MMWave_initMMWaveLink)
                  007ef840    00000200     dss_lvds_stream.oe674 (.text:MmwDemo_LVDSStreamHwConfig)
                  007efa40    00000200     dss_data_path.oe674 (.text:MmwDemo_processChirp)
                  007efc40    00000200     sysbios.ae674 : c64p_Hwi_disp_always.obj (.text:_ti_sysbios_family_c64p_Hwi_dispatchAlways)
                  007efe40    00000200                   : BIOS.obj (.text:ti_sysbios_knl_Semaphore_post__E)
                  007f0040    00000200     ti.targets.rts6000.ae674 : Error.oe674 (.text:xdc_runtime_Error_policyDefault__E)
                  007f0240    000001e0     libadcbuf_xwr16xx.ae674 : adcbuf_mmwave.oe674 (.text:ADCBUF_MMWave_open)
                  007f0420    000001e0     libcbuff_xwr16xx.ae674 : cbuff_transfer.oe674 (.text:CBUFF_setupNonInterleaved_MultiChirp_CP_ADC)
                  007f0600    000001e0                            : cbuff_transfer.oe674 (.text:CBUFF_setupNonInterleaved_MultiChirp_CP_ADC_CQ)
                  007f07e0    000001e0                            : cbuff_transfer.oe674 (.text:CBUFF_setupTransfer)
                  007f09c0    000001e0     libedma_xwr16xx.ae674 : edma.oe674 (.text:EDMA_init)
                  007f0ba0    000001e0     libhsiheader_xwr16xx.ae674 : hsiheader.oe674 (.text:HSIHeader_init)
                  007f0d80    000001e0     dss_data_path.oe674 (.text:MmwDemo_gen_twiddle_fft32x32_fast)
                  007f0f60    000001e0     rts6740_elf.lib : log.obj (.text:log)
                  007f1140    000001e0     libmmwavelink_xwr16xx.ae674 : rl_driver.oe674 (.text:rlDriverRdVerifyMsg)
                  007f1320    000001e0     sysbios.ae674 : BIOS.obj (.text:ti_sysbios_knl_Task_postInit__I)
                  007f1500    000001e0                   : BIOS.obj (.text:ti_sysbios_knl_Task_startCore__E)
                  007f16e0    000001e0     ti.targets.rts6000.ae674 : Text.oe674 (.text:xdc_runtime_Text_putSite__E)
                  007f18c0    000001c0     libcbuff_xwr16xx.ae674 : cbuff_transfer.oe674 (.text:CBUFF_setupNonInterleaved_MultiChirp_ADC_CP)
                  007f1a80    000001c0     libmmwave_xwr16xx.ae674 : mmwave_xwr16xx.oe674 (.text:MMWave_deviceInitFxn)
                  007f1c40    000001c0     libmailbox_xwr16xx.ae674 : mailbox.oe674 (.text:Mailbox_read)
                  007f1e00    000001c0     dss_data_path.oe674 (.text:MmwDemo_XYcalc)
                  007f1fc0    000001c0     dss_main.oe674 (.text:MmwDemo_dssChirpIntHandler)
                  007f2180    000001c0     dss_main.oe674 (.text:MmwDemo_edmaBlockCopy)
                  007f2340    000001c0     dss_data_path.oe674 (.text:MmwDemo_genDftSinCosTable)
                  007f2500    000001c0     libsoc_xwr16xx.ae674 : soc.oe674 (.text:SOC_deregisterSysIntListener)
                  007f26c0    000001c0     rts6740_elf.lib : frexp.obj (.text:frexp)
                  007f2880    000001c0     sysbios.ae674 : BIOS.obj (.text:ti_sysbios_timers_rti_Timer_getFreq__E)
                  007f2a40    000001a0     libadcbuf_xwr16xx.ae674 : adcbuf_mmwave.oe674 (.text:ADCBUFTestPatternConfig)
                  007f2be0    000001a0     libedma_xwr16xx.ae674 : edma.oe674 (.text:EDMA_paramConfig_assist)
                  007f2d80    000001a0     dss_config_edma_util.oe674 (.text:EDMAutil_configType2b)
                  007f2f20    000001a0     rts6740_elf.lib : trgdrv.obj (.text:HOSTrename)
                  007f30c0    000001a0     dss_data_path.oe674 (.text:MmwDemo_dataPathConfigFFTs)
                  007f3260    000001a0     rts6740_elf.lib : lowlev.obj (.text:getdevice)
                  007f3400    000001a0     libmmwavelink_xwr16xx.ae674 : rl_driver.oe674 (.text:rlDriverDeInit)
                  007f35a0    000001a0     sysbios.ae674 : BIOS.obj (.text:ti_sysbios_family_c64p_EventCombiner_dispatch__E)
                  007f3740    000001a0     ti.targets.rts6000.ae674 : Core-smem.oe674 (.text:xdc_runtime_Core_constructObject__I)
                  007f38e0    00000180     libadcbuf_xwr16xx.ae674 : adcbuf_mmwave.oe674 (.text:ADCBUFCmdParamCheck)
                  007f3a60    00000180     libcbuff_xwr16xx.ae674 : cbuff_transfer.oe674 (.text:CBUFF_setupNonInterleaved_CP_ADC)
                  007f3be0    00000180                            : cbuff_transfer.oe674 (.text:CBUFF_setupNonInterleaved_CP_ADC_CQ_USER)
                  007f3d60    00000180     libmmwave_xwr16xx.ae674 : mmwave_fullcfg.oe674 (.text:MMWave_flushCfg)
                  007f3ee0    00000180                             : mmwave_fullcfg.oe674 (.text:MMWave_getChirpHandle)
                  007f4060    00000180                             : mmwave.oe674 (.text:MMWave_start)
                  007f41e0    00000180     libmmwavelink_xwr16xx.ae674 : rl_driver.oe674 (.text:rlDriverMsgWrite)
                  007f4360    00000180     sysbios.ae674 : c64p_Exception_asm.obj (.text)
                  007f44e0    00000180                   : BIOS.obj (.text:ti_sysbios_family_c64p_Exception_internalHandler__I)
                  007f4660    00000180                   : BIOS.obj (.text:ti_sysbios_knl_Task_exit__E)
                  007f47e0    00000180                   : BIOS.obj (.text:ti_sysbios_knl_Task_unblockI__E)
                  007f4960    00000180                   : BIOS.obj (.text:ti_sysbios_utils_Load_startup__E)
                  007f4ae0    00000160     libcbuff_xwr16xx.ae674 : cbuff_transfer.oe674 (.text:CBUFF_setupNonInterleaved_ADC_CP)
                  007f4c40    00000160                            : cbuff_transfer.oe674 (.text:CBUFF_setupNonInterleaved_CP_ADC_CQ)
                  007f4da0    00000160     dss_config_edma_util.oe674 (.text:EDMAutil_configType1)
                  007f4f00    00000160     dss_config_edma_util.oe674 (.text:EDMAutil_configType3)
                  007f5060    00000160     libmmwave_xwr16xx.ae674 : mmwave_link.oe674 (.text:MMWave_asyncEventHandler)
                  007f51c0    00000160                             : mmwave_link.oe674 (.text:MMWave_computeCRC)
                  007f5320    00000160     libmailbox_xwr16xx.ae674 : mailbox.oe674 (.text:Mailbox_close)
                  007f5480    00000160     dss_lvds_stream.oe674 (.text:MmwDemo_LVDSStreamSwConfig)
                  007f55e0    00000160     dss_main.oe674 (.text:MmwDemo_dssDataPathOutputLogging)
                  007f5740    00000160     dss_main.oe674 (.text:MmwDemo_dssDataPathStop)
                  007f58a0    00000160     rx_ch_bias_measure.oe674 (.text:MmwDemo_quadFit)
                  007f5a00    00000160     libsoc_xwr16xx.ae674 : soc.oe674 (.text:SOC_registerSysIntListener)
                  007f5b60    00000160     libmmwavelink_xwr16xx.ae674 : rl_driver.oe674 (.text:rlDriverMsgReadCmdCtx)
                  007f5cc0    00000160                                 : rl_driver.oe674 (.text:rlDriverWaitForResponse)
                  007f5e20    00000160     rts6740_elf.lib : sqrt.obj (.text:sqrt)
                  007f5f80    00000160     sysbios.ae674 : BIOS.obj (.text:ti_sysbios_knl_Task_checkStacks__E)
                  007f60e0    00000160                   : BIOS.obj (.text:ti_sysbios_timers_rti_Timer_postInit__I)
                  007f6240    00000160                   : BIOS.obj (.text:ti_sysbios_utils_Load_idleFxn__E)
                  007f63a0    00000160                   : BIOS.obj (.text:ti_sysbios_utils_Load_logLoads__I)
                  007f6500    00000160                   : BIOS.obj (.text:ti_sysbios_utils_Load_updateLoads__E)
                  007f6660    00000160     ti.targets.rts6000.ae674 : Text.oe674 (.text:xdc_runtime_Text_putMod__E)
                  007f67c0    00000140     libcbuff_xwr16xx.ae674 : cbuff.oe674 (.text:CBUFF_ISR)
                  007f6900    00000140                            : cbuff.oe674 (.text:CBUFF_deactivateSession)
                  007f6a40    00000140                            : cbuff.oe674 (.text:CBUFF_deregisterFrameDone)
                  007f6b80    00000140     libedma_xwr16xx.ae674 : edma_low_level.oe674 (.text:EDMA3Init)
                  007f6cc0    00000140                           : edma.oe674 (.text:EDMA_transferController_error_isr)
                  007f6e00    00000140     libmmwave_xwr16xx.ae674 : mmwave_fullcfg.oe674 (.text:MMWave_addChirp)
                  007f6f40    00000140                             : mmwave.oe674 (.text:MMWave_init)
                  007f7080    00000140     dss_data_path.oe674 (.text:MmwDemo_checkDynamicConfigErrors)
                  007f71c0    00000140     dss_main.oe674 (.text:MmwDemo_dssMmwaveEventCallbackFxn)
                  007f7300    00000140     rts6740_elf.lib : fclose.obj (.text:__TI_closefile)
                  007f7440    00000140                     : fflush.obj (.text:fflush)
                  007f7580    00000140     libmmwavelink_xwr16xx.ae674 : rl_device.oe674 (.text:rlDevicePowerOn)
                  007f76c0    00000140                                 : rl_driver.oe674 (.text:rlDriverMsgCmdReply)
                  007f7800    00000140     sysbios.ae674 : BIOS.obj (.text:ti_sysbios_gates_GateMutex_enter__E)
                  007f7940    00000140                   : BIOS.obj (.text:ti_sysbios_knl_Task_Module_startup__E)
                  007f7a80    00000140                   : BIOS.obj (.text:ti_sysbios_knl_Task_blockI__E)
                  007f7bc0    00000140                   : BIOS.obj (.text:ti_sysbios_timers_rti_Timer_Module_startup__E)
                  007f7d00    00000140     ti.targets.rts6000.ae674 : Core-mem.oe674 (.text:xdc_runtime_Core_deleteObject__I)
                  007f7e40    00000140                              : Text.oe674 (.text:xdc_runtime_Text_putLab__E)
                  007f7f80    00000120     libadcbuf_xwr16xx.ae674 : adcbuf_mmwave.oe674 (.text:ADCBUF_MMWave_getChanBufAddr)
                  007f80a0    00000120     libcbuff_xwr16xx.ae674 : cbuff_transfer.oe674 (.text:CBUFF_setupNonInterleaved_ADC_USER)
                  007f81c0    00000120     dss_lvds_stream.oe674 (.text:MmwDemo_LVDSStream_EDMAAllocateCBUFFHwChannel)
                  007f82e0    00000120     dss_lvds_stream.oe674 (.text:MmwDemo_LVDSStream_EDMAAllocateCBUFFSwChannel)
                  007f8400    00000120     dss_data_path.oe674 (.text:MmwDemo_dataPathConfigCQEdma)
                  007f8520    00000120     boot.ae674 : autoinit.oe674 (.text:_auto_init_elf)
                  007f8640    00000120     rts6740_elf.lib : fseek.obj (.text:fseek)
                  007f8760    00000120     libmmwavelink_xwr16xx.ae674 : rl_driver.oe674 (.text:rlDriverAsyncEventHandler)
                  007f8880    00000120     sysbios.ae674 : BIOS.obj (.text:ti_sysbios_family_c64p_EventCombiner_dispatchPlug__E)
                  007f89a0    00000120                   : BIOS.obj (.text:ti_sysbios_knl_Semaphore_Instance_init__E)
                  007f8ac0    00000100     libcbuff_xwr16xx.ae674 : cbuff_transfer.oe674 (.text:CBUFF_addLinkedList)
                  007f8bc0    00000100                            : cbuff_edma.oe674 (.text:CBUFF_closeEDMA)
                  007f8cc0    00000100                            : cbuff_transfer.oe674 (.text:CBUFF_configUserBufferEDMA)
                  007f8dc0    00000100                            : cbuff_transfer.oe674 (.text:CBUFF_displayLinkedList)
                  007f8ec0    00000100                            : cbuff_edma.oe674 (.text:CBUFF_setupEDMAShadowLink)
                  007f8fc0    00000100     rts6740_elf.lib : trgdrv.obj (.text:HOSTlseek)
                  007f90c0    00000100     libhsiheader_xwr16xx.ae674 : hsiheader.oe674 (.text:HSIHeader_deleteHeader)
                  007f91c0    00000100     libmmwave_xwr16xx.ae674 : mmwave_fullcfg.oe674 (.text:MMWave_addBpmChirp)
                  007f92c0    00000100                             : mmwave_fullcfg.oe674 (.text:MMWave_addProfile)
                  007f93c0    00000100                             : mmwave_fullcfg.oe674 (.text:MMWave_getChirpCfg)
                  007f94c0    00000100     libmailbox_xwr16xx.ae674 : mailbox.oe674 (.text:Mailbox_readFlush)
                  007f95c0    00000100     dss_lvds_stream.oe674 (.text:MmwDemo_LVDSStreamDeleteHwSession)
                  007f96c0    00000100     dss_lvds_stream.oe674 (.text:MmwDemo_LVDSStreamDeleteSwSession)
                  007f97c0    00000100     dss_lvds_stream.oe674 (.text:MmwDemo_LVDSStreamInit)
                  007f98c0    00000100     dss_lvds_stream.oe674 (.text:MmwDemo_LVDSStream_EDMAFreeCBUFFHwChannel)
                  007f99c0    00000100     dss_lvds_stream.oe674 (.text:MmwDemo_LVDSStream_EDMAFreeCBUFFSwChannel)
                  007f9ac0    00000100     dss_lvds_stream.oe674 (.text:MmwDemo_LVDSStream_EDMAInit)
                  007f9bc0    00000100     dss_data_path.oe674 (.text:MmwDemo_getDopplerLine)
                  007f9cc0    00000100     libsoc_xwr16xx.ae674 : soc_xwr16xx_dss.oe674 (.text:SOC_deviceInit)
                  007f9dc0    00000100                          : soc_xwr16xx.oe674 (.text:SOC_translateAddress)
                  007f9ec0    00000100     rts6740_elf.lib : _io_perm.obj (.text:__TI_wrt_ok)
                  007f9fc0    00000100     libmmwavelink_xwr16xx.ae674 : rl_device.oe674 (.text:rlDevicePowerOff)
                  007fa0c0    00000100                                 : rl_driver.oe674 (.text:rlDriverClientCbCheck)
                  007fa1c0    00000100                                 : rl_driver.oe674 (.text:rlDriverOsiCbCheck)
                  007fa2c0    00000100                                 : rl_driver.oe674 (.text:rlDriverValidateHdr)
                  007fa3c0    00000100     sysbios.ae674 : BIOS.obj (.text:ti_sysbios_timers_rti_Timer_initDevice__I)
                  007fa4c0    00000100                   : BIOS.obj (.text:ti_sysbios_timers_rti_Timer_start__E)
                  007fa5c0    00000100     ti.targets.rts6000.ae674 : Error.oe674 (.text:xdc_runtime_Error_print__E)
                  007fa6c0    00000100                              : Memory.oe674 (.text:xdc_runtime_Memory_alloc__E)
                  007fa7c0    00000100                              : Startup.oe674 (.text:xdc_runtime_Startup_exec__E)
                  007fa8c0    000000e0     libadcbuf_xwr16xx.ae674 : adcbuf_mmwave.oe674 (.text:ADCBUFChannelEnSetOffset)
                  007fa9a0    000000e0                             : adcbuf_mmwave.oe674 (.text:ADCBUF_MMWave_getCQBufAddr)
                  007faa80    000000e0     libcbuff_xwr16xx.ae674 : cbuff_transfer.oe674 (.text:CBUFF_configCQEDMA)
                  007fab60    000000e0                            : cbuff_lvds.oe674 (.text:CBUFF_initLVDSLinkListParams)
                  007fac40    000000e0     libcrc_xwr16xx.ae674 : crc.oe674 (.text:CRC_getTransactionId)
                  007fad20    000000e0     libosal_xwr16xx.ae674 : DebugP_tirtos.oe674 (.text:DebugP_log3)
                  007fae00    000000e0     libedma_xwr16xx.ae674 : edma.oe674 (.text:EDMA_configParamSet)
                  007faee0    000000e0                           : edma.oe674 (.text:EDMA_isTransferComplete)
                  007fafc0    000000e0     dss_config_edma_util.oe674 (.text:EDMA_setup_shadow_link)
                  007fb0a0    000000e0     dss_config_edma_util.oe674 (.text:EDMAutil_triggerType3)
                  007fb180    000000e0     rts6740_elf.lib : trgdrv.obj (.text:HOSTopen)
                  007fb260    000000e0                     : trgdrv.obj (.text:HOSTwrite)
                  007fb340    000000e0     libmmwave_xwr16xx.ae674 : mmwave_xwr16xx.oe674 (.text:MMWave_deviceStartFxn)
                  007fb420    000000e0                             : mmwave_fullcfg.oe674 (.text:MMWave_getProfileCfg)
                  007fb500    000000e0     libmailbox_xwr16xx.ae674 : mailbox.oe674 (.text:Mailbox_boxFullISRMssDss)
                  007fb5e0    000000e0                              : mailbox.oe674 (.text:Mailbox_init)
                  007fb6c0    000000e0     dss_main.oe674 (.text:MmwDemo_dssDataPathStart)
                  007fb7a0    000000e0     dss_data_path.oe674 (.text:MmwDemo_log2AbsAccum)
                  007fb880    000000e0     rts6740_elf.lib : divi.obj (.text:__divi)
                  007fb960    000000e0                     : lowlev.obj (.text:close)
                  007fba40    000000e0                     : memset.obj (.text:memset)
                  007fbb20    000000e0     libmmwavelink_xwr16xx.ae674 : rl_device.oe674 (.text:rlDeviceGetVersion)
                  007fbc00    000000e0                                 : rl_driver.oe674 (.text:rlDriverCalChkSum)
                  007fbce0    000000e0                                 : rl_driver.oe674 (.text:rlDriverHostIrqHandler)
                  007fbdc0    000000e0                                 : rl_driver.oe674 (.text:rlDriverMsgReadSpawnCtx)
                  007fbea0    000000e0                                 : rl_driver.oe674 (.text:rlDriverProcRdMsg)
                  007fbf80    000000e0     sysbios.ae674 : BIOS.obj (.text:ti_sysbios_family_c64p_Cache_Module_startup__E)
                  007fc060    000000e0                   : BIOS.obj (.text:ti_sysbios_family_c64p_Cache_getL2InitSize__I)
                  007fc140    000000e0                   : BIOS.obj (.text:ti_sysbios_utils_Load_updateCurrentThreadTime__E)
                  007fc220    000000c0     libcbuff_xwr16xx.ae674 : cbuff.oe674 (.text:CBUFF_deleteSession)
                  007fc2e0    000000c0     libcrc_xwr16xx.ae674 : crc.oe674 (.text:CRC_getSignature)
                  007fc3a0    000000c0     libosal_xwr16xx.ae674 : DebugP_tirtos.oe674 (.text:DebugP_log0)
                  007fc460    000000c0                           : DebugP_tirtos.oe674 (.text:DebugP_log1)
                  007fc520    000000c0                           : DebugP_tirtos.oe674 (.text:DebugP_log2)
                  007fc5e0    000000c0     libedma_xwr16xx.ae674 : edma.oe674 (.text:EDMA_startDmaTransfer)
                  007fc6a0    000000c0     rts6740_elf.lib : trgdrv.obj (.text:HOSTread)
                  007fc760    000000c0                     : trgdrv.obj (.text:HOSTunlink)
                  007fc820    000000c0     libmmwave_xwr16xx.ae674 : mmwave_xwr16xx.oe674 (.text:MMWave_deviceEventFxn)
                  007fc8e0    000000c0                             : mmwave_fullcfg.oe674 (.text:MMWave_getNumChirps)
                  007fc9a0    000000c0                             : mmwave_link.oe674 (.text:MMWave_initCRC)
                  007fca60    000000c0                             : mmwave_link.oe674 (.text:MMWave_spawn)
                  007fcb20    000000c0     libmailbox_xwr16xx.ae674 : mailbox.oe674 (.text:Mailbox_boxFullISRProcessing)
                  007fcbe0    000000c0     dss_lvds_stream.oe674 (.text:MmwDemo_LVDSStream_SwTriggerFrameDone)
                  007fcca0    000000c0     dss_data_path.oe674 (.text:MmwDemo_decodeBPM)
                  007fcd60    000000c0     dss_main.oe674 (.text:MmwDemo_dssFrameStartIntHandler)
                  007fce20    000000c0     libsoc_xwr16xx.ae674 : soc.oe674 (.text:SOC_enableLVDS)
                  007fcee0    000000c0     dss_main.oe674 (.text:_MmwDemo_dssAssert)
                  007fcfa0    000000c0     rts6740_elf.lib : fflush.obj (.text:__TI_doflush)
                  007fd060    000000c0                     : divu.obj (.text:__divu)
                  007fd120    000000c0                     : remi.obj (.text:__remi)
                  007fd1e0    000000c0                     : exit.obj (.text:exit)
                  007fd2a0    000000c0     libmmwavelink_xwr16xx.ae674 : rl_driver.oe674 (.text:rlDriverExecuteGetApi)
                  007fd360    000000c0     sysbios.ae674 : BIOS.obj (.text:ti_sysbios_family_c64p_Cache_getL1DInitSize__I)
                  007fd420    000000c0                   : BIOS.obj (.text:ti_sysbios_family_c64p_Cache_getL1PInitSize__I)
                  007fd4e0    000000c0                   : BIOS.obj (.text:ti_sysbios_heaps_HeapMem_getStats__E)
                  007fd5a0    000000c0                   : BIOS.obj (.text:ti_sysbios_knl_Clock_logTick__E)
                  007fd660    000000c0     dss_mmw_pe674.oe674 (.text:ti_sysbios_knl_Task_create)
                  007fd720    000000c0     sysbios.ae674 : BIOS.obj (.text:ti_sysbios_timers_rti_Timer_startup__E)
                  007fd7e0    000000c0                   : BIOS.obj (.text:ti_sysbios_utils_Load_logCPULoad__I)
                  007fd8a0    000000c0                   : BIOS.obj (.text:ti_sysbios_utils_Load_taskCreateHook__E)
                  007fd960    000000c0                   : BIOS.obj (.text:ti_sysbios_utils_Load_taskSwitchHook__E)
                  007fda20    000000c0     rts6740_elf.lib : tls.obj (.text:tls:init:__TI_tls_init)
                  007fdae0    000000c0     ti.targets.rts6000.ae674 : Assert.oe674 (.text:xdc_runtime_Assert_raise__I)
                  007fdba0    000000c0                              : Error.oe674 (.text:xdc_runtime_Error_setX__E)
                  007fdc60    000000a0     libcbuff_xwr16xx.ae674 : cbuff_transfer.oe674 (.text:CBUFF_addCQLLEntry)
                  007fdd00    000000a0                            : cbuff_transfer.oe674 (.text:CBUFF_addUserBufferLLEntry)
                  007fdda0    000000a0                            : cbuff.oe674 (.text:CBUFF_setVC)
                  007fde40    000000a0                            : cbuff_transfer.oe674 (.text:CBUFF_shutdownTransfer)
                  007fdee0    000000a0     libedma_xwr16xx.ae674 : edma_low_level.oe674 (.text:EDMA3EnableChInShadowReg)
                  007fdf80    000000a0                           : edma.oe674 (.text:EDMA_disableChannel)
                  007fe020    000000a0     rts6740_elf.lib : trgdrv.obj (.text:HOSTclose)
                  007fe0c0    000000a0     libmmwave_xwr16xx.ae674 : mmwave.oe674 (.text:MMWave_execute)
                  007fe160    000000a0                             : mmwave_link.oe674 (.text:MMWave_executeLink)
                  007fe200    000000a0                             : mmwave_link.oe674 (.text:MMWave_initLink)
                  007fe2a0    000000a0                             : mmwave_link.oe674 (.text:MMWave_mboxOpen)
                  007fe340    000000a0                             : mmwave.oe674 (.text:MMWave_sync)
                  007fe3e0    000000a0     libmailbox_xwr16xx.ae674 : mailbox.oe674 (.text:Mailbox_boxEmptyISRProcessing)
                  007fe480    000000a0     dss_lvds_stream.oe674 (.text:MmwDemo_LVDSStream_HwTriggerFrameDone)
                  007fe520    000000a0     dss_data_path.oe674 (.text:MmwDemo_Yestimation)
                  007fe5c0    000000a0     dss_data_path.oe674 (.text:MmwDemo_addDopplerCompensation)
                  007fe660    000000a0     dss_data_path.oe674 (.text:MmwDemo_dataPathWait1DInputData)
                  007fe700    000000a0     dss_data_path.oe674 (.text:MmwDemo_dataPathWait1DOutputData)
                  007fe7a0    000000a0     dss_data_path.oe674 (.text:MmwDemo_dataPathWait2DInputData)
                  007fe840    000000a0     dss_data_path.oe674 (.text:MmwDemo_dataPathWait3DInputData)
                  007fe8e0    000000a0     dss_data_path.oe674 (.text:MmwDemo_dataPathWaitTransDetMatrix2)
                  007fe980    000000a0     dss_data_path.oe674 (.text:MmwDemo_dataPathWaitTransDetMatrix)
                  007fea20    000000a0     dss_main.oe674 (.text:MmwDemo_measurementResultOutput)
                  007feac0    000000a0     libsoc_xwr16xx.ae674 : soc.oe674 (.text:SOC_SystemISR)
                  007feb60    000000a0                          : soc_xwr16xx_dss.oe674 (.text:SOC_triggerDSStoMSSsoftwareInterrupt)
                  007fec00    000000a0     rts6740_elf.lib : fopen.obj (.text:__TI_cleanup)
                  007feca0    000000a0                     : fixfu.obj (.text:__c6xabi_fixfu)
                  007fed40    000000a0                     : remu.obj (.text:__remu)
                  007fede0    000000a0     boot.ae674 : boot.oe674 (.text:_c_int00)
                  007fee80    000000a0     rts6740_elf.lib : memcpy64.obj (.text:memcpy)
                  007fef20    000000a0                     : modf.obj (.text:modf)
                  007fefc0    000000a0     libmmwavelink_xwr16xx.ae674 : rl_controller.oe674 (.text:rlAppendSubBlock)
                  007ff060    000000a0                                 : rl_driver.oe674 (.text:rlDriverExecuteSetApi)
                  007ff100    000000a0                                 : rl_driver.oe674 (.text:rlDriverVerifyCRC)
                  007ff1a0    000000a0                                 : rl_controller.oe674 (.text:rlGetSubBlock)
                  007ff240    000000a0     sysbios.ae674 : BIOS.obj (.text:ti_sysbios_family_c64p_Hwi_Module_startup__E)
                  007ff2e0    000000a0                   : BIOS.obj (.text:ti_sysbios_family_c64p_Hwi_getStackInfo__E)
                  007ff380    000000a0                   : BIOS.obj (.text:ti_sysbios_heaps_HeapMem_alloc__E)
                  007ff420    000000a0                   : BIOS.obj (.text:ti_sysbios_knl_Task_allBlockedFunction__I)
                  007ff4c0    000000a0                   : BIOS.obj (.text:ti_sysbios_timers_rti_Timer_setPeriodMicroSecs__E)
                  007ff560    000000a0                   : BIOS.obj (.text:ti_sysbios_utils_Load_addTask__E)
                  007ff600    000000a0                   : BIOS.obj (.text:ti_sysbios_utils_Load_taskDeleteHook__E)
                  007ff6a0    000000a0     ti.targets.rts6000.ae674 : Core-params.oe674 (.text:xdc_runtime_Core_assignParams__I)
                  007ff740    000000a0                              : System.oe674 (.text:xdc_runtime_System_formatNum__I)
                  007ff7e0    000000a0                              : System.oe674 (.text:xdc_runtime_System_putchar__I)
                  007ff880    000000a0                              : Text.oe674 (.text:xdc_runtime_Text_printVisFxn__I)
                  007ff920    000000a0                              : Text.oe674 (.text:xdc_runtime_Text_xprintf__I)
                  007ff9c0    00000080     libadcbuf_xwr16xx.ae674 : ADCBuf.oe674 (.text:ADCBuf_init)
                  007ffa40    00000080     libcbuff_xwr16xx.ae674 : cbuff_lvds.oe674 (.text:CBUFF_closeLVDS)
                  007ffac0    00000080                            : cbuff_transfer.oe674 (.text:CBUFF_setupHeader)
                  007ffb40    00000080                            : cbuff_transfer.oe674 (.text:CBUFF_setup_USER)
                  007ffbc0    00000080     libedma_xwr16xx.ae674 : edma_low_level.oe674 (.text:EDMA3MapChToEvtQ)
                  007ffc40    00000080                           : edma.oe674 (.text:EDMA_chainChannels)
                  007ffcc0    00000080                           : edma.oe674 (.text:EDMA_linkParamSets)
                  007ffd40    00000080     libhsiheader_xwr16xx.ae674 : hsiheader.oe674 (.text:HSIHeader_processUserBuffer)
                  007ffdc0    00000080     libmmwave_xwr16xx.ae674 : mmwave_link.oe674 (.text:MMWave_mboxWrite)
                  007ffe40    00000080     libmailbox_xwr16xx.ae674 : mailbox.oe674 (.text:Mailbox_writeReset)
                  007ffec0    00000080     dss_main.oe674 (.text:MmwDemo_cfgUpdate)
                  007fff40    00000020     libadcbuf_xwr16xx.ae674 : adcbuf_mmwave.oe674 (.text:ADCBUF_MMWave_init)
                  007fff60    00000010     libmmwavealg_xwr16xx.ae674 : mmwavelib_miscutils.oe674 ($Tramp$S$$mmwavelib_accum16)
                  007fff70    00000010                                : mmwavelib_log2abs.oe674 ($Tramp$S$$mmwavelib_log2Abs32)
                  007fff80    00000010     mathlib.ae674 : divsp.oe674 ($Tramp$S$$divsp)
                  007fff90    00000010     dss_data_path.oe674 ($Tramp$S$$MmwDemo_interChirpProcessing)
                  007fffa0    00000010     dss_data_path.oe674 ($Tramp$S$$MmwDemo_interFrameProcessing)
                  007fffb0    00000010     dss_data_path.oe674 ($Tramp$S$$MmwDemo_dataPathInitEdma)
                  007fffc0    00000010     mathlib.ae674 : sinsp.oe674 ($Tramp$S$$sinsp)
                  007fffd0    00000010                   : cossp.oe674 ($Tramp$S$$cossp)
                  007fffe0    00000010                   : sqrtsp.oe674 ($Tramp$S$$sqrtsp)
                  007ffff0    00000010     --HOLE-- [fill = 00000000]

.text.2    0    00800000    00005620     
                  00800000    00000080     dss_data_path.oe674 (.text:MmwDemo_dataPathComputeDerivedConfig)
                  00800080    00000080     libosal_xwr16xx.ae674 : SemaphoreP_tirtos.oe674 (.text:SemaphoreP_create)
                  00800100    00000080     rts6740_elf.lib : trgmsg.obj (.text:__TI_readmsg)
                  00800180    00000080                     : trgmsg.obj (.text:__TI_writemsg)
                  00800200    00000080                     : fixdu.obj (.text:__c6xabi_fixdu)
                  00800280    00000080                     : llshift.obj (.text:__c6xabi_llshl)
                  00800300    00000080     sysbios.ae674 : c62_TaskSupport_asm.obj (.text:_ti_sysbios_family_c62_TaskSupport_swap__E)
                  00800380    00000080     mmwDemo_monitor.oe674 (.text:mmwDemo_cfgAnalogMonitor)
                  00800400    00000080     libmmwavelink_xwr16xx.ae674 : rl_driver.oe674 (.text:rlDeviceIdentifyCmdDir)
                  00800480    00000080                                 : rl_driver.oe674 (.text:rlDriverOsiInit)
                  00800500    00000080     dss_mmw_pe674.oe674 (.text:ti_sysbios_BIOS_atExitFunc__I)
                  00800580    00000080     dss_mmw_pe674.oe674 (.text:ti_sysbios_BIOS_registerRTSLock__I)
                  00800600    00000080     sysbios.ae674 : BIOS.obj (.text:ti_sysbios_family_c64p_Cache_marInit__I)
                  00800680    00000080                   : BIOS.obj (.text:ti_sysbios_family_c64p_Exception_Module_startup__E)
                  00800700    00000080                   : BIOS.obj (.text:ti_sysbios_family_c64p_Hwi_eventMap__E)
                  00800780    00000080     dss_mmw_pe674.oe674 (.text:ti_sysbios_gates_GateHwi_Object__create__S)
                  00800800    00000080     dss_mmw_pe674.oe674 (.text:ti_sysbios_gates_GateMutex_Object__create__S)
                  00800880    00000080     sysbios.ae674 : BIOS.obj (.text:ti_sysbios_hal_Hwi_checkStack)
                  00800900    00000080                   : BIOS.obj (.text:ti_sysbios_hal_Hwi_initStack)
                  00800980    00000080     dss_mmw_pe674.oe674 (.text:ti_sysbios_heaps_HeapMem_Object__create__S)
                  00800a00    00000080     sysbios.ae674 : BIOS.obj (.text:ti_sysbios_heaps_HeapMem_free__E)
                  00800a80    00000080                   : BIOS.obj (.text:ti_sysbios_heaps_HeapMem_init__I)
                  00800b00    00000080     dss_mmw_pe674.oe674 (.text:ti_sysbios_knl_Clock_doTick__I)
                  00800b80    00000080     dss_mmw_pe674.oe674 (.text:ti_sysbios_knl_Event_create)
                  00800c00    00000080     sysbios.ae674 : BIOS.obj (.text:ti_sysbios_knl_Idle_run__E)
                  00800c80    00000080     dss_mmw_pe674.oe674 (.text:ti_sysbios_knl_Semaphore_create)
                  00800d00    00000080     sysbios.ae674 : BIOS.obj (.text:ti_sysbios_knl_Task_processVitalTaskFlag__I)
                  00800d80    00000080                   : BIOS.obj (.text:ti_sysbios_timers_rti_Timer_setPeriod__E)
                  00800e00    00000080                   : BIOS.obj (.text:ti_sysbios_timers_rti_Timer_stop__E)
                  00800e80    00000080                   : BIOS.obj (.text:ti_sysbios_utils_Load_removeTask__E)
                  00800f00    00000080     rts6740_elf.lib : lowlev.obj (.text:unlink)
                  00800f80    00000080     ti.targets.rts6000.ae674 : Core-label.oe674 (.text:xdc_runtime_Core_assignLabel__I)
                  00801000    00000080                              : SysStd.oe674 (.text:xdc_runtime_SysStd_abort__E)
                  00801080    00000080                              : System.oe674 (.text:xdc_runtime_System_atexit__E)
                  00801100    00000080                              : System.oe674 (.text:xdc_runtime_System_avprintf__E)
                  00801180    00000080                              : System.oe674 (.text:xdc_runtime_System_processAtExit__E)
                  00801200    00000080                              : System.oe674 (.text:xdc_runtime_System_vprintf__E)
                  00801280    00000060     libadcbuf_xwr16xx.ae674 : adcbuf_mmwave.oe674 (.text:ADCBUF_MMWave_close)
                  008012e0    00000060                             : ADCBuf.oe674 (.text:ADCBuf_open)
                  00801340    00000060     libcbuff_xwr16xx.ae674 : cbuff.oe674 (.text:CBUFF_ErrorISR)
                  008013a0    00000060     libcrc_xwr16xx.ae674 : crc.oe674 (.text:CRC_getCRCDataSelectBitValue)
                  00801400    00000060                          : crc.oe674 (.text:CRC_getCRCTypeBitValue)
                  00801460    00000060                          : crc.oe674 (.text:CRC_isTransactionIdValid)
                  008014c0    00000060                          : crc.oe674 (.text:CRC_resetSignature)
                  00801520    00000060     libedma_xwr16xx.ae674 : edma_low_level.oe674 (.text:EDMA3ClrEvt)
                  00801580    00000060                           : edma_low_level.oe674 (.text:EDMA3ClrIntr)
                  008015e0    00000060                           : edma_low_level.oe674 (.text:EDMA3ClrMissEvt)
                  00801640    00000060                           : edma_low_level.oe674 (.text:EDMA3DisableEvtIntr)
                  008016a0    00000060                           : edma_low_level.oe674 (.text:EDMA3EnableDmaEvt)
                  00801700    00000060                           : edma_low_level.oe674 (.text:EDMA3EnableEvtIntr)
                  00801760    00000060                           : edma_low_level.oe674 (.text:EDMA3SetEvt)
                  008017c0    00000060                           : edma.oe674 (.text:EDMA_configTransferControllerError)
                  00801820    00000060                           : edma.oe674 (.text:EDMA_setDestinationAddress)
                  00801880    00000060                           : edma.oe674 (.text:EDMA_setSourceAddress)
                  008018e0    00000060                           : edma.oe674 (.text:EDMA_validate_channelIdchannelType)
                  00801940    00000060     libhsiheader_xwr16xx.ae674 : hsiheader.oe674 (.text:HSIHeader_processCQ)
                  008019a0    00000060     libmmwave_xwr16xx.ae674 : mmwave_listlib.oe674 (.text:MMWave_listCat)
                  00801a00    00000060                             : mmwave_listlib.oe674 (.text:MMWave_listRemoveNode)
                  00801a60    00000060                             : mmwave_osal.oe674 (.text:MMWave_osalMutexCreate)
                  00801ac0    00000060                             : mmwave_osal.oe674 (.text:MMWave_osalSemCreate)
                  00801b20    00000060     libmailbox_xwr16xx.ae674 : mailbox.oe674 (.text:Mailbox_Config_init)
                  00801b80    00000060     dss_data_path.oe674 (.text:MmwDemo_dataPathObjInit)
                  00801be0    00000060     dss_data_path.oe674 (.text:MmwDemo_dssDataPathStartCQEdma)
                  00801c40    00000060     dss_main.oe674 (.text:MmwDemo_dssMMWaveCtrlTask)
                  00801ca0    00000060     dss_main.oe674 (.text:MmwDemo_dssMmwaveOpenCallbackFxn)
                  00801d00    00000060     dss_main.oe674 (.text:MmwDemo_triggerDss2MssISR)
                  00801d60    00000060     dss_data_path.oe674 (.text:MmwDemo_waitEndOfChirps)
                  00801dc0    00000060     libsoc_xwr16xx.ae674 : soc_xwr16xx.oe674 (.text:SOC_setMMWaveDSSLinkState)
                  00801e20    00000060                          : soc_xwr16xx.oe674 (.text:SOC_setMMWaveMSSLinkState)
                  00801e80    00000060                          : soc.oe674 (.text:SOC_unhaltBSS)
                  00801ee0    00000060                          : soc_xwr16xx_dss.oe674 (.text:SOC_waitBSSPowerUp)
                  00801f40    00000060     rts6740_elf.lib : llshift.obj (.text:__c6xabi_llshru)
                  00801fa0    00000060                     : imath64.obj (.text:_subcull)
                  00802000    00000060     sysbios.ae674 : c64p_Hwi_asm_switch.obj (.text:_ti_sysbios_family_c64p_Hwi_switchAndDispatch__I)
                  00802060    00000060     rts6740_elf.lib : lowlev.obj (.text:lseek)
                  008020c0    00000060     mmwDemo_monitor.oe674 (.text:mmwDemo_cfgRxSaturationMonitor)
                  00802120    00000060     mmwDemo_monitor.oe674 (.text:mmwDemo_cfgRxSigImgMonitor)
                  00802180    00000060     libmmwavelink_xwr16xx.ae674 : rl_device.oe674 (.text:rlDeviceGetMssVersion)
                  008021e0    00000060                                 : rl_driver.oe674 (.text:rlDriverConstructInMsg)
                  00802240    00000060                                 : rl_sensor.oe674 (.text:rlEnableContMode)
                  008022a0    00000060                                 : rl_monitoring.oe674 (.text:rlRfAnaMonConfig)
                  00802300    00000060                                 : rl_sensor.oe674 (.text:rlRfRunTimeCalibConfig)
                  00802360    00000060                                 : rl_monitoring.oe674 (.text:rlRfRxIfSatMonConfig)
                  008023c0    00000060                                 : rl_monitoring.oe674 (.text:rlRfRxSigImgMonConfig)
                  00802420    00000060                                 : rl_sensor.oe674 (.text:rlSensorStart)
                  00802480    00000060     dss_mmw_pe674.oe674 (.text:ti_sysbios_BIOS_errorRaiseHook__I)
                  008024e0    00000060     dss_mmw_pe674.oe674 (.text:ti_sysbios_BIOS_removeRTSLock__I)
                  00802540    00000060     dss_mmw_pe674.oe674 (.text:ti_sysbios_BIOS_startFunc__I)
                  008025a0    00000060     sysbios.ae674 : BIOS.obj (.text:ti_sysbios_family_c62_TaskSupport_start__E)
                  00802600    00000060                   : BIOS.obj (.text:ti_sysbios_family_c64p_Cache_setMar__E)
                  00802660    00000060                   : BIOS.obj (.text:ti_sysbios_family_c64p_Cache_setSize__E)
                  008026c0    00000060                   : BIOS.obj (.text:ti_sysbios_family_c64p_EventCombiner_Module_startup__E)
                  00802720    00000060                   : BIOS.obj (.text:ti_sysbios_family_c64p_EventCombiner_unused__E)
                  00802780    00000060     dss_mmw_pe674.oe674 (.text:ti_sysbios_gates_GateMutex_Object__delete__S)
                  008027e0    00000060     sysbios.ae674 : BIOS.obj (.text:ti_sysbios_knl_Clock_Module_startup__E)
                  00802840    00000060                   : BIOS.obj (.text:ti_sysbios_knl_Event_pendTimeout__I)
                  008028a0    00000060     dss_mmw_pe674.oe674 (.text:ti_sysbios_knl_Queue_construct)
                  00802900    00000060     dss_mmw_pe674.oe674 (.text:ti_sysbios_knl_Semaphore_Object__delete__S)
                  00802960    00000060     dss_mmw_pe674.oe674 (.text:ti_sysbios_knl_Semaphore_construct)
                  008029c0    00000060     sysbios.ae674 : BIOS.obj (.text:ti_sysbios_knl_Semaphore_pendTimeout__I)
                  00802a20    00000060                   : BIOS.obj (.text:ti_sysbios_knl_Task_enter__I)
                  00802a80    00000060                   : BIOS.obj (.text:ti_sysbios_knl_Task_getMode__E)
                  00802ae0    00000060                   : BIOS.obj (.text:ti_sysbios_knl_Task_restoreHwi__E)
                  00802b40    00000060                   : BIOS.obj (.text:ti_sysbios_knl_Task_restore__E)
                  00802ba0    00000060     dss_mmw_pe674.oe674 (.text:ti_sysbios_rts_gnu_MemAlloc_alloc)
                  00802c00    00000060     rts6740_elf.lib : lowlev.obj (.text:write)
                  00802c60    00000060     ti.targets.rts6000.ae674 : Memory.oe674 (.text:xdc_runtime_Memory_valloc__E)
                  00802cc0    00000060                              : Text.oe674 (.text:xdc_runtime_Text_cordText__E)
                  00802d20    00000040     libcbuff_xwr16xx.ae674 : cbuff.oe674 (.text:CBUFF_FrameStartISR)
                  00802d60    00000040                            : cbuff_lvds.oe674 (.text:CBUFF_finalizeLVDSLinkListParams)
                  00802da0    00000040     libcrc_xwr16xx.ae674 : crc.oe674 (.text:CRC_getSignatureRegister)
                  00802de0    00000040                          : crc.oe674 (.text:CRC_releaseTransactionId)
                  00802e20    00000040     libadcbuf_xwr16xx.ae674 : adcbuf_mmwave.oe674 (.text:CSL_FEXTR)
                  00802e60    00000040     libcbuff_xwr16xx.ae674 : cbuff.oe674 (.text:CSL_FEXTR)
                  00802ea0    00000040                            : cbuff_lvds.oe674 (.text:CSL_FEXTR)
                  00802ee0    00000040     libhsiheader_xwr16xx.ae674 : hsiheader.oe674 (.text:CSL_FEXTR)
                  00802f20    00000040     libmmwave_xwr16xx.ae674 : mmwave.oe674 (.text:CSL_FEXTR)
                  00802f60    00000040     libsoc_xwr16xx.ae674 : soc.oe674 (.text:CSL_FEXTR)
                  00802fa0    00000040                          : soc_xwr16xx.oe674 (.text:CSL_FEXTR)
                  00802fe0    00000040     libadcbuf_xwr16xx.ae674 : adcbuf_mmwave.oe674 (.text:CSL_FINSR)
                  00803020    00000040     libcbuff_xwr16xx.ae674 : cbuff.oe674 (.text:CSL_FINSR)
                  00803060    00000040                            : cbuff_lvds.oe674 (.text:CSL_FINSR)
                  008030a0    00000040                            : cbuff_transfer.oe674 (.text:CSL_FINSR)
                  008030e0    00000040     libcrc_xwr16xx.ae674 : crc.oe674 (.text:CSL_FINSR)
                  00803120    00000040     libmailbox_xwr16xx.ae674 : mailbox.oe674 (.text:CSL_FINSR)
                  00803160    00000040     libsoc_xwr16xx.ae674 : soc.oe674 (.text:CSL_FINSR)
                  008031a0    00000040                          : soc_xwr16xx.oe674 (.text:CSL_FINSR)
                  008031e0    00000040                          : soc_xwr16xx_dss.oe674 (.text:CSL_FINSR)
                  00803220    00000040     libedma_xwr16xx.ae674 : edma_low_level.oe674 (.text:EDMA3DisableDmaEvt)
                  00803260    00000040                           : edma_low_level.oe674 (.text:EDMA3MapQdmaChToPaRAM)
                  008032a0    00000040                           : edma_low_level.oe674 (.text:EDMA3SetPaRAM)
                  008032e0    00000040                           : edma_low_level.oe674 (.text:EDMA3SetQdmaTrigWord)
                  00803320    00000040     libosal_xwr16xx.ae674 : HwiP_tirtos.oe674 (.text:HwiP_create)
                  00803360    00000040                           : HwiP_tirtos.oe674 (.text:HwiP_delete)
                  008033a0    00000040     libmmwave_xwr16xx.ae674 : mmwave_xwr16xx.oe674 (.text:MMWave_deviceSyncFxn)
                  008033e0    00000040                             : mmwave.oe674 (.text:MMWave_encodeError)
                  00803420    00000040                             : mmwave_listlib.oe674 (.text:MMWave_listAdd)
                  00803460    00000040                             : mmwave_listlib.oe674 (.text:MMWave_listRemove)
                  008034a0    00000040                             : mmwave_osal.oe674 (.text:MMWave_osalMutexLock)
                  008034e0    00000040                             : mmwave_osal.oe674 (.text:MMWave_osalSemWait)
                  00803520    00000040     libmailbox_xwr16xx.ae674 : mailbox.oe674 (.text:Mailbox_boxEmptyISRBss)
                  00803560    00000040                              : mailbox.oe674 (.text:Mailbox_boxEmptyISRMssDss)
                  008035a0    00000040                              : mailbox.oe674 (.text:Mailbox_boxFullISRBss)
                  008035e0    00000040     dss_data_path.oe674 (.text:MmwDemo_dataPathInit1Dstate)
                  00803620    00000040     dss_main.oe674 (.text:MmwDemo_dssMmwaveConfigCallbackFxn)
                  00803660    00000040     dss_main.oe674 (.text:MmwDemo_dssMmwaveStartCallbackFxn)
                  008036a0    00000040     dss_data_path.oe674 (.text:MmwDemo_edmaErrorCallbackFxn)
                  008036e0    00000040     dss_data_path.oe674 (.text:MmwDemo_edmaTransferControllerErrorCallbackFxn)
                  00803720    00000040     dss_main.oe674 (.text:MmwDemo_mboxWrite)
                  00803760    00000040     dss_data_path.oe674 (.text:MmwDemo_pow2roundup)
                  008037a0    00000040     libsoc_xwr16xx.ae674 : soc_xwr16xx_dss.oe674 (.text:SOC_getInAddr_LUTType)
                  008037e0    00000040                          : soc_xwr16xx_dss.oe674 (.text:SOC_getOutAddr_LUTType)
                  00803820    00000040                          : soc_xwr16xx.oe674 (.text:SOC_isMMWaveDSSOperational)
                  00803860    00000040                          : soc_xwr16xx.oe674 (.text:SOC_isMMWaveMSSOperational)
                  008038a0    00000040                          : soc_xwr16xx_dss.oe674 (.text:SOC_microDelay)
                  008038e0    00000040     rts6740_elf.lib : frcmpyd_div.obj (.text:__TI_frcmpyd_div)
                  00803920    00000040                     : strasg.obj (.text:__strasgi_64plus)
                  00803960    00000040                     : args_main.obj (.text:_args_main)
                  008039a0    00000040     sysbios.ae674 : c62_TaskSupport_asm.obj (.text:_ti_sysbios_family_c62_TaskSupport_buildTaskStack)
                  008039e0    00000040     dss_mmw_pe674.oe674 (.text:free)
                  00803a20    00000040     rts6740_elf.lib : log10.obj (.text:log10)
                  00803a60    00000040     libmmwavelink_xwr16xx.ae674 : rl_controller.oe674 (.text:rlAppendDummy)
                  00803aa0    00000040                                 : rl_device.oe674 (.text:rlDeviceGetRfVersion)
                  00803ae0    00000040                                 : rl_driver.oe674 (.text:rlDriverCalCRC)
                  00803b20    00000040     dss_mmw_pe674.oe674 (.text:ti_sysbios_BIOS_exitFunc__I)
                  00803b60    00000040     dss_mmw_pe674.oe674 (.text:ti_sysbios_BIOS_rtsLock__I)
                  00803ba0    00000040     dss_mmw_pe674.oe674 (.text:ti_sysbios_BIOS_rtsUnlock__I)
                  00803be0    00000040     sysbios.ae674 : BIOS.obj (.text:ti_sysbios_family_c64p_EventCombiner_disableEvent__E)
                  00803c20    00000040                   : BIOS.obj (.text:ti_sysbios_family_c64p_EventCombiner_enableEvent__E)
                  00803c60    00000040                   : BIOS.obj (.text:ti_sysbios_family_c64p_Exception_externalHandler__I)
                  00803ca0    00000040                   : BIOS.obj (.text:ti_sysbios_family_c64p_Exception_nmiHandler__I)
                  00803ce0    00000040                   : BIOS.obj (.text:ti_sysbios_family_c64p_Hwi_disableIER__E)
                  00803d20    00000040                   : BIOS.obj (.text:ti_sysbios_family_c64p_Hwi_dispatchC__I)
                  00803d60    00000040                   : BIOS.obj (.text:ti_sysbios_family_c64p_Hwi_enableIER__E)
                  00803da0    00000040                   : BIOS.obj (.text:ti_sysbios_family_c64p_Hwi_getEventId__E)
                  00803de0    00000040     dss_mmw_pe674.oe674 (.text:ti_sysbios_gates_GateHwi_Handle__label__S)
                  00803e20    00000040     dss_mmw_pe674.oe674 (.text:ti_sysbios_gates_GateHwi_Object__delete__S)
                  00803e60    00000040     dss_mmw_pe674.oe674 (.text:ti_sysbios_gates_GateMutex_Handle__label__S)
                  00803ea0    00000040     sysbios.ae674 : BIOS.obj (.text:ti_sysbios_gates_GateMutex_Instance_finalize__E)
                  00803ee0    00000040                   : BIOS.obj (.text:ti_sysbios_gates_GateMutex_Instance_init__E)
                  00803f20    00000040                   : BIOS.obj (.text:ti_sysbios_gates_GateMutex_leave__E)
                  00803f60    00000040     dss_mmw_pe674.oe674 (.text:ti_sysbios_heaps_HeapMem_Handle__label__S)
                  00803fa0    00000040     dss_mmw_pe674.oe674 (.text:ti_sysbios_heaps_HeapMem_Object__delete__S)
                  00803fe0    00000040     dss_mmw_pe674.oe674 (.text:ti_sysbios_heaps_HeapMem_Object__get__S)
                  00804020    00000040     sysbios.ae674 : BIOS.obj (.text:ti_sysbios_knl_Clock_addI__E)
                  00804060    00000040                   : BIOS.obj (.text:ti_sysbios_knl_Event_Instance_init__E)
                  008040a0    00000040                   : BIOS.obj (.text:ti_sysbios_knl_Event_checkEvents__I)
                  008040e0    00000040                   : BIOS.obj (.text:ti_sysbios_knl_Semaphore_Instance_finalize__E)
                  00804120    00000040     dss_mmw_pe674.oe674 (.text:ti_sysbios_knl_Semaphore_destruct)
                  00804160    00000040     dss_mmw_pe674.oe674 (.text:ti_sysbios_knl_Task_Object__get__S)
                  008041a0    00000040     sysbios.ae674 : BIOS.obj (.text:ti_sysbios_knl_Task_sleepTimeout__I)
                  008041e0    00000040                   : BIOS.obj (.text:ti_sysbios_knl_Task_unblock__E)
                  00804220    00000040                   : BIOS.obj (.text:ti_sysbios_timers_rti_Timer_ackInterrupt__E)
                  00804260    00000040                   : BIOS.obj (.text:ti_sysbios_timers_rti_Timer_checkOverflow__I)
                  008042a0    00000040                   : BIOS.obj (.text:ti_sysbios_utils_Load_getTaskLoad__E)
                  008042e0    00000040     ti.targets.rts6000.ae674 : Error.oe674 (.text:xdc_runtime_Error_check__E)
                  00804320    00000040                              : Error.oe674 (.text:xdc_runtime_Error_init__E)
                  00804360    00000040                              : Registry.oe674 (.text:xdc_runtime_Registry_findById__E)
                  008043a0    00000040                              : System.oe674 (.text:xdc_runtime_System_abort__E)
                  008043e0    00000040     dss_mmw_pe674.oe674 (.text:xdc_runtime_System_aprintf__E)
                  00804420    00000040     ti.targets.rts6000.ae674 : System.oe674 (.text:xdc_runtime_System_exit__E)
                  00804460    00000040     dss_mmw_pe674.oe674 (.text:xdc_runtime_System_printf__E)
                  008044a0    00000020     libadcbuf_xwr16xx.ae674 : ADCBuf.oe674 (.text:ADCBuf_Params_init)
                  008044c0    00000020                             : ADCBuf.oe674 (.text:ADCBuf_control)
                  008044e0    00000020                             : ADCBuf.oe674 (.text:ADCBuf_getChanBufAddr)
                  00804500    00000020     libcbuff_xwr16xx.ae674 : cbuff_lvds.oe674 (.text:CBUFF_deinitLVDS)
                  00804520    00000020     libcrc_xwr16xx.ae674 : crc.oe674 (.text:CRC_initConfigParams)
                  00804540    00000020     libsoc_xwr16xx.ae674 : soc_xwr16xx_dss.oe674 (.text:CSL_FEXTR)
                  00804560    00000020     libedma_xwr16xx.ae674 : edma_low_level.oe674 (.text:EDMA3ChannelToParamMap)
                  00804580    00000020                           : edma_low_level.oe674 (.text:EDMA3ClrCCErr)
                  008045a0    00000020                           : edma_low_level.oe674 (.text:EDMA3DisableQdmaEvt)
                  008045c0    00000020                           : edma_low_level.oe674 (.text:EDMA3EnableQdmaEvt)
                  008045e0    00000020                           : edma_low_level.oe674 (.text:EDMA3ErrIntrHighStatusGet)
                  00804600    00000020                           : edma_low_level.oe674 (.text:EDMA3GetCCErrStatus)
                  00804620    00000020                           : edma_low_level.oe674 (.text:EDMA3GetErrIntrStatus)
                  00804640    00000020                           : edma_low_level.oe674 (.text:EDMA3GetIntrStatus)
                  00804660    00000020                           : edma_low_level.oe674 (.text:EDMA3IntrStatusHighGet)
                  00804680    00000020                           : edma_low_level.oe674 (.text:EDMA3QdmaClrMissEvt)
                  008046a0    00000020                           : edma_low_level.oe674 (.text:EDMA3QdmaGetErrIntrStatus)
                  008046c0    00000020                           : edma.oe674 (.text:EDMA_getNumInstances)
                  008046e0    00000020                           : edma_low_level.oe674 (.text:EDMAsetRegion)
                  00804700    00000020     libosal_xwr16xx.ae674 : HwiP_tirtos.oe674 (.text:HwiP_Params_init)
                  00804720    00000020                           : HwiP_tirtos.oe674 (.text:HwiP_disable)
                  00804740    00000020                           : HwiP_tirtos.oe674 (.text:HwiP_disableInterrupt)
                  00804760    00000020                           : HwiP_tirtos.oe674 (.text:HwiP_enableInterrupt)
                  00804780    00000020                           : HwiP_tirtos.oe674 (.text:HwiP_restore)
                  008047a0    00000020     libmmwave_xwr16xx.ae674 : mmwave.oe674 (.text:MMWave_decodeErrorLevel)
                  008047c0    00000020                             : mmwave_xwr16xx.oe674 (.text:MMWave_deviceGetDeviceInfo)
                  008047e0    00000020                             : mmwave_xwr16xx.oe674 (.text:MMWave_deviceMailboxCallbackFxn)
                  00804800    00000020                             : mmwave_link.oe674 (.text:MMWave_disableDevice)
                  00804820    00000020                             : mmwave_link.oe674 (.text:MMWave_enableDevice)
                  00804840    00000020                             : mmwave_listlib.oe674 (.text:MMWave_listGetHead)
                  00804860    00000020                             : mmwave_listlib.oe674 (.text:MMWave_listGetNext)
                  00804880    00000020                             : mmwave_link.oe674 (.text:MMWave_maskHostIRQ)
                  008048a0    00000020                             : mmwave_link.oe674 (.text:MMWave_mboxCallbackFxn)
                  008048c0    00000020                             : mmwave_link.oe674 (.text:MMWave_mboxClose)
                  008048e0    00000020                             : mmwave_link.oe674 (.text:MMWave_mboxRead)
                  00804900    00000020                             : mmwave_osal.oe674 (.text:MMWave_osalMutexDelete)
                  00804920    00000020                             : mmwave_osal.oe674 (.text:MMWave_osalMutexUnlock)
                  00804940    00000020                             : mmwave_osal.oe674 (.text:MMWave_osalSemDelete)
                  00804960    00000020                             : mmwave_osal.oe674 (.text:MMWave_osalSemSignal)
                  00804980    00000020                             : mmwave_link.oe674 (.text:MMWave_registerInterruptHandler)
                  008049a0    00000020                             : mmwave_link.oe674 (.text:MMWave_unmaskHostIRQ)
                  008049c0    00000020                             : mmwave_link.oe674 (.text:MMWave_waitIRQStatus)
                  008049e0    00000020     libosal_xwr16xx.ae674 : MemoryP_tirtos.oe674 (.text:MemoryP_ctrlAlloc)
                  00804a00    00000020                           : MemoryP_tirtos.oe674 (.text:MemoryP_ctrlFree)
                  00804a20    00000020     dss_main.oe674 (.text:MmwDemo_dssMmwaveCloseCallbackFxn)
                  00804a40    00000020     dss_main.oe674 (.text:MmwDemo_dssMmwaveStopCallbackFxn)
                  00804a60    00000020     dss_main.oe674 (.text:MmwDemo_mboxCallback)
                  00804a80    00000020     dss_main.oe674 (.text:MmwDemo_sleep)
                  00804aa0    00000020     libosal_xwr16xx.ae674 : SemaphoreP_tirtos.oe674 (.text:SemaphoreP_Params_init)
                  00804ac0    00000020                           : SemaphoreP_tirtos.oe674 (.text:SemaphoreP_delete)
                  00804ae0    00000020                           : SemaphoreP_tirtos.oe674 (.text:SemaphoreP_pend)
                  00804b00    00000020                           : SemaphoreP_tirtos.oe674 (.text:SemaphoreP_post)
                  00804b20    00000020                           : DebugP_tirtos.oe674 (.text:_DebugP_assert)
                  00804b40    00000020     rts6740_elf.lib : errno.obj (.text:__c6xabi_errno_addr)
                  00804b60    00000020                     : push.obj (.text:__pop_rts)
                  00804b80    00000020                     : push.obj (.text:__push_rts)
                  00804ba0    00000020     ti.targets.rts6000.ae674 : xdc_noinit.oe674 (.text:__xdc__init)
                  00804bc0    00000020     rts6740_elf.lib : _lock.obj (.text:_nop)
                  00804be0    00000020                     : _lock.obj (.text:_register_lock)
                  00804c00    00000020                     : _lock.obj (.text:_register_unlock)
                  00804c20    00000020     sysbios.ae674 : c62_TaskSupport_asm.obj (.text:_ti_sysbios_family_c62_TaskSupport_glue)
                  00804c40    00000020     rts6740_elf.lib : exit.obj (.text:abort)
                  00804c60    00000020                     : fputc.obj (.text:putchar)
                  00804c80    00000020     libmmwavelink_xwr16xx.ae674 : rl_driver.oe674 (.text:rlDriverGetHandle)
                  00804ca0    00000020                                 : rl_driver.oe674 (.text:rlDriverGetPlatformId)
                  00804cc0    00000020                                 : rl_driver.oe674 (.text:rlDriverIsDeviceMapValid)
                  00804ce0    00000020                                 : rl_controller.oe674 (.text:rlGetSubBlockId)
                  00804d00    00000020                                 : rl_controller.oe674 (.text:rlGetSubBlockLen)
                  00804d20    00000020     dss_mmw_pe674.oe674 (.text:ti_sysbios_BIOS_RtsGateProxy_enter__E)
                  00804d40    00000020     dss_mmw_pe674.oe674 (.text:ti_sysbios_BIOS_RtsGateProxy_leave__E)
                  00804d60    00000020     sysbios.ae674 : BIOS.obj (.text:ti_sysbios_BIOS_getCpuFreq__E)
                  00804d80    00000020                   : BIOS.obj (.text:ti_sysbios_BIOS_linkedWithIncorrectBootLibrary__E)
                  00804da0    00000020     dss_mmw_pe674.oe674 (.text:ti_sysbios_BIOS_nullFunc__I)
                  00804dc0    00000020     sysbios.ae674 : BIOS.obj (.text:ti_sysbios_BIOS_setThreadType__E)
                  00804de0    00000020                   : BIOS.obj (.text:ti_sysbios_BIOS_start__E)
                  00804e00    00000020     dss_mmw_pe674.oe674 (.text:ti_sysbios_family_c62_TaskSupport_Module__startupDone__S)
                  00804e20    00000020     sysbios.ae674 : BIOS.obj (.text:ti_sysbios_family_c62_TaskSupport_checkStack__E)
                  00804e40    00000020                   : BIOS.obj (.text:ti_sysbios_family_c62_TaskSupport_getStackAlignment__E)
                  00804e60    00000020     dss_mmw_pe674.oe674 (.text:ti_sysbios_family_c64p_Hwi_Module__startupDone__F)
                  00804e80    00000020     sysbios.ae674 : BIOS.obj (.text:ti_sysbios_family_c64p_Hwi_clearInterrupt__E)
                  00804ea0    00000020                   : BIOS.obj (.text:ti_sysbios_family_c64p_Hwi_disableInterrupt__E)
                  00804ec0    00000020                   : BIOS.obj (.text:ti_sysbios_family_c64p_Hwi_enableInterrupt__E)
                  00804ee0    00000020                   : BIOS.obj (.text:ti_sysbios_family_c64p_Hwi_getIsrStackAddress__I)
                  00804f00    00000020                   : BIOS.obj (.text:ti_sysbios_family_c64p_Hwi_startup__E)
                  00804f20    00000020                   : BIOS.obj (.text:ti_sysbios_family_c64p_Hwi_switchFromBootStack__E)
                  00804f40    00000020                   : BIOS.obj (.text:ti_sysbios_family_c64p_TimestampProvider_Module_startup__E)
                  00804f60    00000020                   : BIOS.obj (.text:ti_sysbios_family_c64p_TimestampProvider_get32__E)
                  00804f80    00000020                   : BIOS.obj (.text:ti_sysbios_gates_GateHwi_Instance_init__E)
                  00804fa0    00000020                   : BIOS.obj (.text:ti_sysbios_gates_GateHwi_enter__E)
                  00804fc0    00000020                   : BIOS.obj (.text:ti_sysbios_gates_GateHwi_leave__E)
                  00804fe0    00000020                   : BIOS.obj (.text:ti_sysbios_gates_GateHwi_query__E)
                  00805000    00000020                   : BIOS.obj (.text:ti_sysbios_gates_GateMutex_query__E)
                  00805020    00000020                   : BIOS.obj (.text:ti_sysbios_hal_Hwi_Module_startup__E)
                  00805040    00000020     dss_mmw_pe674.oe674 (.text:ti_sysbios_heaps_HeapMem_Module_GateProxy_enter__E)
                  00805060    00000020     dss_mmw_pe674.oe674 (.text:ti_sysbios_heaps_HeapMem_Module_GateProxy_leave__E)
                  00805080    00000020     sysbios.ae674 : BIOS.obj (.text:ti_sysbios_heaps_HeapMem_isBlocking__E)
                  008050a0    00000020                   : BIOS.obj (.text:ti_sysbios_heaps_HeapMem_restore__E)
                  008050c0    00000020     dss_mmw_pe674.oe674 (.text:ti_sysbios_knl_Clock_TimerProxy_getMaxTicks__E)
                  008050e0    00000020     sysbios.ae674 : BIOS.obj (.text:ti_sysbios_knl_Clock_removeI__E)
                  00805100    00000020                   : BIOS.obj (.text:ti_sysbios_knl_Clock_startI__E)
                  00805120    00000020                   : BIOS.obj (.text:ti_sysbios_knl_Idle_loop__E)
                  00805140    00000020                   : BIOS.obj (.text:ti_sysbios_knl_Queue_Instance_init__E)
                  00805160    00000020     dss_mmw_pe674.oe674 (.text:ti_sysbios_knl_Queue_Object__get__S)
                  00805180    00000020     sysbios.ae674 : BIOS.obj (.text:ti_sysbios_knl_Queue_dequeue__E)
                  008051a0    00000020     dss_mmw_pe674.oe674 (.text:ti_sysbios_knl_Queue_destruct)
                  008051c0    00000020     sysbios.ae674 : BIOS.obj (.text:ti_sysbios_knl_Queue_empty__E)
                  008051e0    00000020                   : BIOS.obj (.text:ti_sysbios_knl_Queue_enqueue__E)
                  00805200    00000020                   : BIOS.obj (.text:ti_sysbios_knl_Queue_put__E)
                  00805220    00000020     dss_mmw_pe674.oe674 (.text:ti_sysbios_knl_Semaphore_Params__init__S)
                  00805240    00000020     dss_mmw_pe674.oe674 (.text:ti_sysbios_knl_Semaphore_delete)
                  00805260    00000020     dss_mmw_pe674.oe674 (.text:ti_sysbios_knl_Task_Params__init__S)
                  00805280    00000020     sysbios.ae674 : BIOS.obj (.text:ti_sysbios_knl_Task_disable__E)
                  008052a0    00000020                   : BIOS.obj (.text:ti_sysbios_knl_Task_enabled__E)
                  008052c0    00000020                   : BIOS.obj (.text:ti_sysbios_knl_Task_startup__E)
                  008052e0    00000020     dss_mmw_pe674.oe674 (.text:ti_sysbios_timers_rti_Timer_Module__startupDone__F)
                  00805300    00000020     sysbios.ae674 : BIOS.obj (.text:ti_sysbios_timers_rti_Timer_getMaxTicks__E)
                  00805320    00000020                   : BIOS.obj (.text:ti_sysbios_timers_rti_Timer_periodicStub__E)
                  00805340    00000020                   : BIOS.obj (.text:ti_sysbios_utils_Load_getCPULoad__E)
                  00805360    00000020                   : BIOS.obj (.text:ti_sysbios_utils_Load_taskRegHook__E)
                  00805380    00000020     ti.targets.rts6000.ae674 : Error.oe674 (.text:xdc_runtime_Error_getSite__E)
                  008053a0    00000020                              : Error.oe674 (.text:xdc_runtime_Error_raiseX__E)
                  008053c0    00000020                              : Gate.oe674 (.text:xdc_runtime_Gate_enterSystem__E)
                  008053e0    00000020                              : Gate.oe674 (.text:xdc_runtime_Gate_leaveSystem__E)
                  00805400    00000020     dss_mmw_pe674.oe674 (.text:xdc_runtime_IHeap_alloc)
                  00805420    00000020     dss_mmw_pe674.oe674 (.text:xdc_runtime_IHeap_free)
                  00805440    00000020     ti.targets.rts6000.ae674 : Memory.oe674 (.text:xdc_runtime_Memory_calloc__E)
                  00805460    00000020                              : Memory.oe674 (.text:xdc_runtime_Memory_free__E)
                  00805480    00000020                              : Memory.oe674 (.text:xdc_runtime_Memory_getMaxDefaultTypeAlign__E)
                  008054a0    00000020     dss_mmw_pe674.oe674 (.text:xdc_runtime_Startup_exec__I)
                  008054c0    00000020     dss_mmw_pe674.oe674 (.text:xdc_runtime_Startup_reset__I)
                  008054e0    00000020     ti.targets.rts6000.ae674 : Startup.oe674 (.text:xdc_runtime_Startup_rtsDone__E)
                  00805500    00000020                              : SysStd.oe674 (.text:xdc_runtime_SysStd_exit__E)
                  00805520    00000020                              : SysStd.oe674 (.text:xdc_runtime_SysStd_putch__E)
                  00805540    00000020                              : SysStd.oe674 (.text:xdc_runtime_SysStd_ready__E)
                  00805560    00000020     dss_mmw_pe674.oe674 (.text:xdc_runtime_System_Module_GateProxy_enter__E)
                  00805580    00000020     dss_mmw_pe674.oe674 (.text:xdc_runtime_System_Module_GateProxy_leave__E)
                  008055a0    00000020     ti.targets.rts6000.ae674 : System.oe674 (.text:xdc_runtime_System_Module_startup__E)
                  008055c0    00000020                              : System.oe674 (.text:xdc_runtime_System_vsnprintf__E)
                  008055e0    00000020                              : Text.oe674 (.text:xdc_runtime_Text_ropeText__E)
                  00805600    00000020     dss_mmw_pe674.oe674 (.text:xdc_runtime_Text_visitRope__I)

.l2data    0    00805620    0000cc00     UNINITIALIZED
                  00805620    0000c000     dss_data_path.oe674 (.l2data)
                  00811620    00000c00     dss_main.oe674 (.l2data)

systemHeap 
*          0    00812220    00005000     UNINITIALIZED
                  00812220    00005000     dss_mmw_pe674.oe674 (systemHeap)

.const     0    00817220    00002b31     
                  00817220    00000be4     dss_main.oe674 (.const:.string)
                  00817e04    00000004     ti.targets.rts6000.ae674 : Assert.oe674 (.const:.string)
                  00817e08    00000800     dss_data_path.oe674 (.const:twiddleTableCommon)
                  00818608    00000518     sysbios.ae674 : BIOS.obj (.const:.string)
                  00818b20    00000398     dss_lvds_stream.oe674 (.const:.string)
                  00818eb8    00000164     dss_config_edma_util.oe674 (.const:.string)
                  0081901c    00000108     libcbuff_xwr16xx.ae674 : cbuff_transfer.oe674 (.const:.string)
                  00819124    000000ec     dss_data_path.oe674 (.const:.string)
                  00819210    00000070     libmmwavelink_xwr16xx.ae674 : rl_driver.oe674 (.const)
                  00819280    0000006c                                 : rl_driver.oe674 (.const:.string)
                  008192ec    00000004     dss_mmw_pe674.oe674 (.const:ti_sysbios_family_c62_TaskSupport_stackAlignment__C)
                  008192f0    00000068     libedma_xwr16xx.ae674 : edma_xwr1xxx.oe674 (.const:gEdmaHwAttrs)
                  00819358    00000064     dss_mmw_pe674.oe674 (.const:.string)
                  008193bc    00000058     libedma_xwr16xx.ae674 : edma.oe674 (.const:.string)
                  00819414    00000058     ti.targets.rts6000.ae674 : Error.oe674 (.const:.string)
                  0081946c    0000004c     libmailbox_xwr16xx.ae674 : mailbox.oe674 (.const:.string)
                  008194b8    00000040     libmmwavealg_xwr16xx.ae674 : mmwavelib_log2abs.oe674 (.const:.string:c_Log2LookUp)
                  008194f8    00000040     libcbuff_xwr16xx.ae674 : cbuff_lvds.oe674 (.const:.string)
                  00819538    00000040     ti.targets.rts6000.ae674 : Text.oe674 (.const:.string)
                  00819578    0000003c     libsoc_xwr16xx.ae674 : soc_xwr16xx_dss.oe674 (.const:.string)
                  008195b4    0000003c     dss_mmw_pe674.oe674 (.const:ti_sysbios_knl_Task_Object__PARAMS__C)
                  008195f0    00000034     libmmwave_xwr16xx.ae674 : mmwave_xwr16xx.oe674 (.const:.string)
                  00819624    0000002c     ti.targets.rts6000.ae674 : Startup.oe674 (.const:.string)
                  00819650    00000028     libcbuff_xwr16xx.ae674 : cbuff.oe674 (.const:.string)
                  00819678    00000028     libmmwave_xwr16xx.ae674 : mmwave.oe674 (.const:.string)
                  008196a0    00000028     dss_mmw_pe674.oe674 (.const:ti_sysbios_heaps_HeapMem_Module__FXNS__C)
                  008196c8    00000028     dss_mmw_pe674.oe674 (.const:xdc_runtime_Startup_sfxnTab__A)
                  008196f0    00000024     libmailbox_xwr16xx.ae674 : mailbox.oe674 (.const)
                  00819714    00000024     dss_mmw_pe674.oe674 (.const:ti_sysbios_gates_GateHwi_Module__FXNS__C)
                  00819738    00000024     dss_mmw_pe674.oe674 (.const:ti_sysbios_gates_GateMutex_Module__FXNS__C)
                  0081975c    00000024     dss_mmw_pe674.oe674 (.const:ti_sysbios_heaps_HeapMem_Object__PARAMS__C)
                  00819780    00000024     dss_mmw_pe674.oe674 (.const:ti_sysbios_knl_Semaphore_Object__PARAMS__C)
                  008197a4    00000020     libosal_xwr16xx.ae674 : SemaphoreP_tirtos.oe674 (.const:.string)
                  008197c4    00000020     dss_mmw_pe674.oe674 (.const:ti_sysbios_gates_GateHwi_Object__DESC__C)
                  008197e4    00000020     dss_mmw_pe674.oe674 (.const:ti_sysbios_gates_GateMutex_Object__DESC__C)
                  00819804    00000020     dss_mmw_pe674.oe674 (.const:ti_sysbios_heaps_HeapMem_Object__DESC__C)
                  00819824    00000020     dss_mmw_pe674.oe674 (.const:ti_sysbios_knl_Event_Object__DESC__C)
                  00819844    00000020     dss_mmw_pe674.oe674 (.const:ti_sysbios_knl_Queue_Object__DESC__C)
                  00819864    00000020     dss_mmw_pe674.oe674 (.const:ti_sysbios_knl_Semaphore_Object__DESC__C)
                  00819884    00000020     dss_mmw_pe674.oe674 (.const:ti_sysbios_knl_Task_Object__DESC__C)
                  008198a4    0000001c     libosal_xwr16xx.ae674 : HwiP_tirtos.oe674 (.const:.string)
                  008198c0    00000018     libmmwave_xwr16xx.ae674 : mmwave_fullcfg.oe674 (.const:.string)
                  008198d8    00000018     ti.targets.rts6000.ae674 : System.oe674 (.const:.string)
                  008198f0    00000018     dss_mmw_pe674.oe674 (.const:ti_sysbios_gates_GateHwi_Object__PARAMS__C)
                  00819908    00000018     dss_mmw_pe674.oe674 (.const:ti_sysbios_gates_GateMutex_Object__PARAMS__C)
                  00819920    00000018     dss_mmw_pe674.oe674 (.const:ti_sysbios_knl_Event_Object__PARAMS__C)
                  00819938    00000018     dss_mmw_pe674.oe674 (.const:ti_sysbios_knl_Queue_Object__PARAMS__C)
                  00819950    00000018     dss_mmw_pe674.oe674 (.const:ti_sysbios_knl_Task_hooks__A)
                  00819968    00000014     libadcbuf_xwr16xx.ae674 : adcbuf_mmwave.oe674 (.const:.string)
                  0081997c    00000014     libcbuff_xwr16xx.ae674 : cbuff_edma.oe674 (.const:.string)
                  00819990    00000014     libmmwave_xwr16xx.ae674 : mmwave_link.oe674 (.const:.string)
                  008199a4    00000014     libadcbuf_xwr16xx.ae674 : adcbuf_mmwave.oe674 (.const)
                  008199b8    00000014     dss_mmw_pe674.oe674 (.const:xdc_runtime_Startup_sfxnRts__A)
                  008199cc    00000004     dss_mmw_pe674.oe674 (.const:ti_sysbios_family_c64p_Cache_E_invalidL1CacheSize__C)
                  008199d0    00000010     libmmwavelink_xwr16xx.ae674 : rl_driver.oe674 (.const:$P$T2$3)
                  008199e0    00000010     libhsiheader_xwr16xx.ae674 : hsiheader.oe674 (.const:.string)
                  008199f0    00000010     libedma_xwr16xx.ae674 : edma.oe674 (.const:EDMA_config$1)
                  00819a00    00000010     libadcbuf_xwr16xx.ae674 : adcbuf_xwr1xxx.oe674 (.const:gADCBufHwCfg)
                  00819a10    00000010     dss_mmw_pe674.oe674 (.const:ti_sysbios_family_c64p_EventCombiner_EVTMASK__C)
                  00819a20    0000000c     libcrc_xwr16xx.ae674 : crc.oe674 (.const:.string)
                  00819a2c    0000000c     libadcbuf_xwr16xx.ae674 : ADCBuf.oe674 (.const)
                  00819a38    0000000c     dss_mmw_pe674.oe674 (.const:ti_sysbios_knl_Idle_funcList__A)
                  00819a44    00000004     dss_mmw_pe674.oe674 (.const:ti_sysbios_family_c64p_Cache_E_invalidL2CacheSize__C)
                  00819a48    00000008     dss_data_path.oe674 (.const:$P$T0$1)
                  00819a50    00000008     dss_mmw_pe674.oe674 (.const:ti_sysbios_knl_Idle_funcList__C)
                  00819a58    00000008     dss_mmw_pe674.oe674 (.const:ti_sysbios_knl_Task_hooks__C)
                  00819a60    00000008     dss_mmw_pe674.oe674 (.const:xdc_runtime_Startup_firstFxns__A)
                  00819a68    00000008     dss_mmw_pe674.oe674 (.const:xdc_runtime_Startup_firstFxns__C)
                  00819a70    00000008     dss_mmw_pe674.oe674 (.const:xdc_runtime_Startup_lastFxns__C)
                  00819a78    00000004     dss_mmw_pe674.oe674 (.const:ti_sysbios_family_c64p_Cache_MAR0_31__C)
                  00819a7c    00000004     dss_mmw_pe674.oe674 (.const:ti_sysbios_family_c64p_Cache_MAR128_159__C)
                  00819a80    00000004     dss_mmw_pe674.oe674 (.const:ti_sysbios_family_c64p_Cache_MAR160_191__C)
                  00819a84    00000004     dss_mmw_pe674.oe674 (.const:ti_sysbios_family_c64p_Cache_MAR192_223__C)
                  00819a88    00000004     dss_mmw_pe674.oe674 (.const:ti_sysbios_family_c64p_Cache_MAR224_255__C)
                  00819a8c    00000004     dss_mmw_pe674.oe674 (.const:ti_sysbios_family_c64p_Cache_MAR32_63__C)
                  00819a90    00000004     dss_mmw_pe674.oe674 (.const:ti_sysbios_family_c64p_Cache_MAR64_95__C)
                  00819a94    00000004     dss_mmw_pe674.oe674 (.const:ti_sysbios_family_c64p_Cache_MAR96_127__C)
                  00819a98    00000004     dss_mmw_pe674.oe674 (.const:ti_sysbios_family_c64p_EventCombiner_A_invalidEventId__C)
                  00819a9c    00000004     dss_mmw_pe674.oe674 (.const:ti_sysbios_family_c64p_EventCombiner_E_unpluggedEvent__C)
                  00819aa0    00000004     dss_mmw_pe674.oe674 (.const:ti_sysbios_family_c64p_EventCombiner_Module__diagsEnabled__C)
                  00819aa4    00000004     dss_mmw_pe674.oe674 (.const:ti_sysbios_family_c64p_EventCombiner_Module__diagsIncluded__C)
                  00819aa8    00000004     dss_mmw_pe674.oe674 (.const:ti_sysbios_family_c64p_EventCombiner_Module__diagsMask__C)
                  00819aac    00000004     dss_mmw_pe674.oe674 (.const:ti_sysbios_family_c64p_Exception_E_exceptionMax__C)
                  00819ab0    00000004     dss_mmw_pe674.oe674 (.const:ti_sysbios_family_c64p_Exception_exceptionHook__C)
                  00819ab4    00000004     dss_mmw_pe674.oe674 (.const:ti_sysbios_family_c64p_Exception_externalHook__C)
                  00819ab8    00000004     dss_mmw_pe674.oe674 (.const:ti_sysbios_family_c64p_Exception_internalHook__C)
                  00819abc    00000004     dss_mmw_pe674.oe674 (.const:ti_sysbios_family_c64p_Exception_nmiHook__C)
                  00819ac0    00000004     dss_mmw_pe674.oe674 (.const:ti_sysbios_family_c64p_Hwi_LD_end__C)
                  00819ac4    00000004     dss_mmw_pe674.oe674 (.const:ti_sysbios_family_c64p_Hwi_LM_begin__C)
                  00819ac8    00000004     dss_mmw_pe674.oe674 (.const:ti_sysbios_family_c64p_Hwi_Module__diagsEnabled__C)
                  00819acc    00000004     dss_mmw_pe674.oe674 (.const:ti_sysbios_family_c64p_Hwi_Module__diagsIncluded__C)
                  00819ad0    00000004     dss_mmw_pe674.oe674 (.const:ti_sysbios_family_c64p_Hwi_Module__diagsMask__C)
                  00819ad4    00000004     dss_mmw_pe674.oe674 (.const:ti_sysbios_family_c64p_Hwi_Module__loggerFxn1__C)
                  00819ad8    00000004     dss_mmw_pe674.oe674 (.const:ti_sysbios_family_c64p_Hwi_Module__loggerFxn8__C)
                  00819adc    00000004     dss_mmw_pe674.oe674 (.const:ti_sysbios_family_c64p_Hwi_Module__loggerObj__C)
                  00819ae0    00000004     dss_mmw_pe674.oe674 (.const:ti_sysbios_gates_GateMutex_A_badContext__C)
                  00819ae4    00000004     dss_mmw_pe674.oe674 (.const:ti_sysbios_gates_GateMutex_Instance_State_sem__O)
                  00819ae8    00000004     dss_mmw_pe674.oe674 (.const:ti_sysbios_gates_GateMutex_Module__diagsEnabled__C)
                  00819aec    00000004     dss_mmw_pe674.oe674 (.const:ti_sysbios_gates_GateMutex_Module__diagsIncluded__C)
                  00819af0    00000004     dss_mmw_pe674.oe674 (.const:ti_sysbios_gates_GateMutex_Module__diagsMask__C)
                  00819af4    00000004     dss_mmw_pe674.oe674 (.const:ti_sysbios_hal_Hwi_E_stackOverflow__C)
                  00819af8    00000004     dss_mmw_pe674.oe674 (.const:ti_sysbios_heaps_HeapMem_A_align__C)
                  00819afc    00000004     dss_mmw_pe674.oe674 (.const:ti_sysbios_heaps_HeapMem_A_heapSize__C)
                  00819b00    00000004     dss_mmw_pe674.oe674 (.const:ti_sysbios_heaps_HeapMem_A_invalidFree__C)
                  00819b04    00000004     dss_mmw_pe674.oe674 (.const:ti_sysbios_heaps_HeapMem_A_zeroBlock__C)
                  00819b08    00000004     dss_mmw_pe674.oe674 (.const:ti_sysbios_heaps_HeapMem_E_memory__C)
                  00819b0c    00000004     dss_mmw_pe674.oe674 (.const:ti_sysbios_heaps_HeapMem_Module__diagsEnabled__C)
                  00819b10    00000004     dss_mmw_pe674.oe674 (.const:ti_sysbios_heaps_HeapMem_Module__diagsIncluded__C)
                  00819b14    00000004     dss_mmw_pe674.oe674 (.const:ti_sysbios_heaps_HeapMem_Module__diagsMask__C)
                  00819b18    00000004     dss_mmw_pe674.oe674 (.const:ti_sysbios_heaps_HeapMem_Module__gateObj__C)
                  00819b1c    00000004     dss_mmw_pe674.oe674 (.const:ti_sysbios_heaps_HeapMem_Object__count__C)
                  00819b20    00000004     dss_mmw_pe674.oe674 (.const:ti_sysbios_heaps_HeapMem_reqAlign__C)
                  00819b24    00000004     dss_mmw_pe674.oe674 (.const:ti_sysbios_knl_Clock_LM_begin__C)
                  00819b28    00000004     dss_mmw_pe674.oe674 (.const:ti_sysbios_knl_Clock_LM_tick__C)
                  00819b2c    00000004     dss_mmw_pe674.oe674 (.const:ti_sysbios_knl_Clock_LW_delayed__C)
                  00819b30    00000004     dss_mmw_pe674.oe674 (.const:ti_sysbios_knl_Clock_Module_State_clockQ__O)
                  00819b34    00000004     dss_mmw_pe674.oe674 (.const:ti_sysbios_knl_Clock_Module__diagsEnabled__C)
                  00819b38    00000004     dss_mmw_pe674.oe674 (.const:ti_sysbios_knl_Clock_Module__diagsIncluded__C)
                  00819b3c    00000004     dss_mmw_pe674.oe674 (.const:ti_sysbios_knl_Clock_Module__diagsMask__C)
                  00819b40    00000004     dss_mmw_pe674.oe674 (.const:ti_sysbios_knl_Clock_Module__loggerFxn1__C)
                  00819b44    00000004     dss_mmw_pe674.oe674 (.const:ti_sysbios_knl_Clock_Module__loggerFxn2__C)
                  00819b48    00000004     dss_mmw_pe674.oe674 (.const:ti_sysbios_knl_Clock_Module__loggerObj__C)
                  00819b4c    00000004     dss_mmw_pe674.oe674 (.const:ti_sysbios_knl_Event_A_badContext__C)
                  00819b50    00000004     dss_mmw_pe674.oe674 (.const:ti_sysbios_knl_Event_A_eventInUse__C)
                  00819b54    00000004     dss_mmw_pe674.oe674 (.const:ti_sysbios_knl_Event_A_nullEventId__C)
                  00819b58    00000004     dss_mmw_pe674.oe674 (.const:ti_sysbios_knl_Event_A_nullEventMasks__C)
                  00819b5c    00000004     dss_mmw_pe674.oe674 (.const:ti_sysbios_knl_Event_A_pendTaskDisabled__C)
                  00819b60    00000004     dss_mmw_pe674.oe674 (.const:ti_sysbios_knl_Event_Instance_State_pendQ__O)
                  00819b64    00000004     dss_mmw_pe674.oe674 (.const:ti_sysbios_knl_Event_LM_pend__C)
                  00819b68    00000004     dss_mmw_pe674.oe674 (.const:ti_sysbios_knl_Event_LM_post__C)
                  00819b6c    00000004     dss_mmw_pe674.oe674 (.const:ti_sysbios_knl_Event_Module__diagsEnabled__C)
                  00819b70    00000004     dss_mmw_pe674.oe674 (.const:ti_sysbios_knl_Event_Module__diagsIncluded__C)
                  00819b74    00000004     dss_mmw_pe674.oe674 (.const:ti_sysbios_knl_Event_Module__diagsMask__C)
                  00819b78    00000004     dss_mmw_pe674.oe674 (.const:ti_sysbios_knl_Event_Module__loggerFxn4__C)
                  00819b7c    00000004     dss_mmw_pe674.oe674 (.const:ti_sysbios_knl_Event_Module__loggerFxn8__C)
                  00819b80    00000004     dss_mmw_pe674.oe674 (.const:ti_sysbios_knl_Event_Module__loggerObj__C)
                  00819b84    00000004     dss_mmw_pe674.oe674 (.const:ti_sysbios_knl_Semaphore_A_badContext__C)
                  00819b88    00000004     dss_mmw_pe674.oe674 (.const:ti_sysbios_knl_Semaphore_A_noEvents__C)
                  00819b8c    00000004     dss_mmw_pe674.oe674 (.const:ti_sysbios_knl_Semaphore_A_overflow__C)
                  00819b90    00000004     dss_mmw_pe674.oe674 (.const:ti_sysbios_knl_Semaphore_A_pendTaskDisabled__C)
                  00819b94    00000004     dss_mmw_pe674.oe674 (.const:ti_sysbios_knl_Semaphore_Instance_State_pendQ__O)
                  00819b98    00000004     dss_mmw_pe674.oe674 (.const:ti_sysbios_knl_Semaphore_LM_pend__C)
                  00819b9c    00000004     dss_mmw_pe674.oe674 (.const:ti_sysbios_knl_Semaphore_LM_post__C)
                  00819ba0    00000004     dss_mmw_pe674.oe674 (.const:ti_sysbios_knl_Semaphore_Module__diagsEnabled__C)
                  00819ba4    00000004     dss_mmw_pe674.oe674 (.const:ti_sysbios_knl_Semaphore_Module__diagsIncluded__C)
                  00819ba8    00000004     dss_mmw_pe674.oe674 (.const:ti_sysbios_knl_Semaphore_Module__diagsMask__C)
                  00819bac    00000004     dss_mmw_pe674.oe674 (.const:ti_sysbios_knl_Semaphore_Module__loggerFxn2__C)
                  00819bb0    00000004     dss_mmw_pe674.oe674 (.const:ti_sysbios_knl_Semaphore_Module__loggerFxn4__C)
                  00819bb4    00000004     dss_mmw_pe674.oe674 (.const:ti_sysbios_knl_Semaphore_Module__loggerObj__C)
                  00819bb8    00000004     dss_mmw_pe674.oe674 (.const:ti_sysbios_knl_Task_A_badPriority__C)
                  00819bbc    00000004     dss_mmw_pe674.oe674 (.const:ti_sysbios_knl_Task_A_badTaskState__C)
                  00819bc0    00000004     dss_mmw_pe674.oe674 (.const:ti_sysbios_knl_Task_A_badThreadType__C)
                  00819bc4    00000004     dss_mmw_pe674.oe674 (.const:ti_sysbios_knl_Task_A_badTimeout__C)
                  00819bc8    00000004     dss_mmw_pe674.oe674 (.const:ti_sysbios_knl_Task_A_noPendElem__C)
                  00819bcc    00000004     dss_mmw_pe674.oe674 (.const:ti_sysbios_knl_Task_A_sleepTaskDisabled__C)
                  00819bd0    00000004     dss_mmw_pe674.oe674 (.const:ti_sysbios_knl_Task_E_spOutOfBounds__C)
                  00819bd4    00000004     dss_mmw_pe674.oe674 (.const:ti_sysbios_knl_Task_E_stackOverflow__C)
                  00819bd8    00000004     dss_mmw_pe674.oe674 (.const:ti_sysbios_knl_Task_LD_block__C)
                  00819bdc    00000004     dss_mmw_pe674.oe674 (.const:ti_sysbios_knl_Task_LD_exit__C)
                  00819be0    00000004     dss_mmw_pe674.oe674 (.const:ti_sysbios_knl_Task_LD_ready__C)
                  00819be4    00000004     dss_mmw_pe674.oe674 (.const:ti_sysbios_knl_Task_LM_sleep__C)
                  00819be8    00000004     dss_mmw_pe674.oe674 (.const:ti_sysbios_knl_Task_LM_switch__C)
                  00819bec    00000004     dss_mmw_pe674.oe674 (.const:ti_sysbios_knl_Task_Module_State_inactiveQ__O)
                  00819bf0    00000004     dss_mmw_pe674.oe674 (.const:ti_sysbios_knl_Task_Module__diagsEnabled__C)
                  00819bf4    00000004     dss_mmw_pe674.oe674 (.const:ti_sysbios_knl_Task_Module__diagsIncluded__C)
                  00819bf8    00000004     dss_mmw_pe674.oe674 (.const:ti_sysbios_knl_Task_Module__diagsMask__C)
                  00819bfc    00000004     dss_mmw_pe674.oe674 (.const:ti_sysbios_knl_Task_Module__loggerFxn2__C)
                  00819c00    00000004     dss_mmw_pe674.oe674 (.const:ti_sysbios_knl_Task_Module__loggerFxn4__C)
                  00819c04    00000004     dss_mmw_pe674.oe674 (.const:ti_sysbios_knl_Task_Module__loggerObj__C)
                  00819c08    00000004     dss_mmw_pe674.oe674 (.const:ti_sysbios_knl_Task_Object__count__C)
                  00819c0c    00000004     dss_mmw_pe674.oe674 (.const:ti_sysbios_knl_Task_Object__heap__C)
                  00819c10    00000004     dss_mmw_pe674.oe674 (.const:ti_sysbios_knl_Task_allBlockedFunc__C)
                  00819c14    00000004     dss_mmw_pe674.oe674 (.const:ti_sysbios_knl_Task_defaultStackHeap__C)
                  00819c18    00000004     dss_mmw_pe674.oe674 (.const:ti_sysbios_knl_Task_defaultStackSize__C)
                  00819c1c    00000004     dss_mmw_pe674.oe674 (.const:ti_sysbios_knl_Task_numConstructedTasks__C)
                  00819c20    00000004     dss_mmw_pe674.oe674 (.const:ti_sysbios_timers_rti_Timer_E_cannotSupport__C)
                  00819c24    00000004     dss_mmw_pe674.oe674 (.const:ti_sysbios_timers_rti_Timer_Module__diagsEnabled__C)
                  00819c28    00000004     dss_mmw_pe674.oe674 (.const:ti_sysbios_timers_rti_Timer_Module__diagsIncluded__C)
                  00819c2c    00000004     dss_mmw_pe674.oe674 (.const:ti_sysbios_timers_rti_Timer_Module__diagsMask__C)
                  00819c30    00000004     dss_mmw_pe674.oe674 (.const:ti_sysbios_timers_rti_Timer_numTimerDevices__C)
                  00819c34    00000004     dss_mmw_pe674.oe674 (.const:ti_sysbios_timers_rti_Timer_startupNeeded__C)
                  00819c38    00000004     dss_mmw_pe674.oe674 (.const:ti_sysbios_utils_Load_LS_cpuLoad__C)
                  00819c3c    00000004     dss_mmw_pe674.oe674 (.const:ti_sysbios_utils_Load_LS_taskLoad__C)
                  00819c40    00000004     dss_mmw_pe674.oe674 (.const:ti_sysbios_utils_Load_Module_State_taskList__O)
                  00819c44    00000004     dss_mmw_pe674.oe674 (.const:ti_sysbios_utils_Load_Module__diagsEnabled__C)
                  00819c48    00000004     dss_mmw_pe674.oe674 (.const:ti_sysbios_utils_Load_Module__diagsIncluded__C)
                  00819c4c    00000004     dss_mmw_pe674.oe674 (.const:ti_sysbios_utils_Load_Module__diagsMask__C)
                  00819c50    00000004     dss_mmw_pe674.oe674 (.const:ti_sysbios_utils_Load_Module__loggerFxn1__C)
                  00819c54    00000004     dss_mmw_pe674.oe674 (.const:ti_sysbios_utils_Load_Module__loggerFxn4__C)
                  00819c58    00000004     dss_mmw_pe674.oe674 (.const:ti_sysbios_utils_Load_Module__loggerObj__C)
                  00819c5c    00000004     dss_mmw_pe674.oe674 (.const:ti_sysbios_utils_Load_postUpdate__C)
                  00819c60    00000004     dss_mmw_pe674.oe674 (.const:ti_sysbios_utils_Load_windowInMs__C)
                  00819c64    00000004     dss_mmw_pe674.oe674 (.const:xdc_runtime_Assert_E_assertFailed__C)
                  00819c68    00000004     dss_mmw_pe674.oe674 (.const:xdc_runtime_Core_A_initializedParams__C)
                  00819c6c    00000004     dss_mmw_pe674.oe674 (.const:xdc_runtime_Core_Module__diagsEnabled__C)
                  00819c70    00000004     dss_mmw_pe674.oe674 (.const:xdc_runtime_Core_Module__diagsIncluded__C)
                  00819c74    00000004     dss_mmw_pe674.oe674 (.const:xdc_runtime_Core_Module__diagsMask__C)
                  00819c78    00000004     dss_mmw_pe674.oe674 (.const:xdc_runtime_Error_E_memory__C)
                  00819c7c    00000004     dss_mmw_pe674.oe674 (.const:xdc_runtime_Error_Module__diagsEnabled__C)
                  00819c80    00000004     dss_mmw_pe674.oe674 (.const:xdc_runtime_Error_Module__diagsIncluded__C)
                  00819c84    00000004     dss_mmw_pe674.oe674 (.const:xdc_runtime_Error_Module__diagsMask__C)
                  00819c88    00000004     dss_mmw_pe674.oe674 (.const:xdc_runtime_Error_Module__loggerFxn8__C)
                  00819c8c    00000004     dss_mmw_pe674.oe674 (.const:xdc_runtime_Error_Module__loggerObj__C)
                  00819c90    00000004     dss_mmw_pe674.oe674 (.const:xdc_runtime_Error_policyFxn__C)
                  00819c94    00000004     dss_mmw_pe674.oe674 (.const:xdc_runtime_Error_policy__C)
                  00819c98    00000004     dss_mmw_pe674.oe674 (.const:xdc_runtime_Error_raiseHook__C)
                  00819c9c    00000004     dss_mmw_pe674.oe674 (.const:xdc_runtime_IGateProvider_Interface__BASE__C)
                  00819ca0    00000004     dss_mmw_pe674.oe674 (.const:xdc_runtime_IHeap_Interface__BASE__C)
                  00819ca4    00000004     dss_mmw_pe674.oe674 (.const:xdc_runtime_IModule_Interface__BASE__C)
                  00819ca8    00000004     dss_mmw_pe674.oe674 (.const:xdc_runtime_Log_L_error__C)
                  00819cac    00000004     dss_mmw_pe674.oe674 (.const:xdc_runtime_Main_Module__diagsEnabled__C)
                  00819cb0    00000004     dss_mmw_pe674.oe674 (.const:xdc_runtime_Main_Module__diagsIncluded__C)
                  00819cb4    00000004     dss_mmw_pe674.oe674 (.const:xdc_runtime_Main_Module__diagsMask__C)
                  00819cb8    00000004     dss_mmw_pe674.oe674 (.const:xdc_runtime_Main_Module__loggerFxn1__C)
                  00819cbc    00000004     dss_mmw_pe674.oe674 (.const:xdc_runtime_Main_Module__loggerFxn2__C)
                  00819cc0    00000004     dss_mmw_pe674.oe674 (.const:xdc_runtime_Main_Module__loggerFxn4__C)
                  00819cc4    00000004     dss_mmw_pe674.oe674 (.const:xdc_runtime_Main_Module__loggerObj__C)
                  00819cc8    00000004     dss_mmw_pe674.oe674 (.const:xdc_runtime_Memory_defaultHeapInstance__C)
                  00819ccc    00000004     dss_mmw_pe674.oe674 (.const:xdc_runtime_Startup_execImpl__C)
                  00819cd0    00000004     dss_mmw_pe674.oe674 (.const:xdc_runtime_Startup_maxPasses__C)
                  00819cd4    00000004     dss_mmw_pe674.oe674 (.const:xdc_runtime_Startup_sfxnRts__C)
                  00819cd8    00000004     dss_mmw_pe674.oe674 (.const:xdc_runtime_Startup_sfxnTab__C)
                  00819cdc    00000004     dss_mmw_pe674.oe674 (.const:xdc_runtime_System_Module__gateObj__C)
                  00819ce0    00000004     dss_mmw_pe674.oe674 (.const:xdc_runtime_System_abortFxn__C)
                  00819ce4    00000004     dss_mmw_pe674.oe674 (.const:xdc_runtime_System_exitFxn__C)
                  00819ce8    00000004     dss_mmw_pe674.oe674 (.const:xdc_runtime_System_extendFxn__C)
                  00819cec    00000004     dss_mmw_pe674.oe674 (.const:xdc_runtime_System_maxAtexitHandlers__C)
                  00819cf0    00000004     dss_mmw_pe674.oe674 (.const:xdc_runtime_Text_charTab__C)
                  00819cf4    00000004     dss_mmw_pe674.oe674 (.const:xdc_runtime_Text_nameEmpty__C)
                  00819cf8    00000004     dss_mmw_pe674.oe674 (.const:xdc_runtime_Text_nameStatic__C)
                  00819cfc    00000004     dss_mmw_pe674.oe674 (.const:xdc_runtime_Text_nameUnknown__C)
                  00819d00    00000004     dss_mmw_pe674.oe674 (.const:xdc_runtime_Text_nodeTab__A)
                  00819d04    00000004     dss_mmw_pe674.oe674 (.const:xdc_runtime_Text_visitRopeFxn__C)
                  00819d08    00000002     dss_mmw_pe674.oe674 (.const:ti_sysbios_family_c64p_Cache_Module__id__C)
                  00819d0a    00000002     dss_mmw_pe674.oe674 (.const:ti_sysbios_family_c64p_EventCombiner_Module__id__C)
                  00819d0c    00000002     dss_mmw_pe674.oe674 (.const:ti_sysbios_family_c64p_Exception_Module__id__C)
                  00819d0e    00000002     dss_mmw_pe674.oe674 (.const:ti_sysbios_family_c64p_Exception_useInternalBuffer__C)
                  00819d10    00000002     dss_mmw_pe674.oe674 (.const:ti_sysbios_family_c64p_Hwi_Module__id__C)
                  00819d12    00000002     dss_mmw_pe674.oe674 (.const:ti_sysbios_family_c64p_Hwi_Module__loggerDefined__C)
                  00819d14    00000002     dss_mmw_pe674.oe674 (.const:ti_sysbios_gates_GateMutex_Module__id__C)
                  00819d16    00000002     dss_mmw_pe674.oe674 (.const:ti_sysbios_hal_Hwi_Module__id__C)
                  00819d18    00000002     dss_mmw_pe674.oe674 (.const:ti_sysbios_heaps_HeapMem_Module__id__C)
                  00819d1a    00000002     dss_mmw_pe674.oe674 (.const:ti_sysbios_knl_Clock_Module__id__C)
                  00819d1c    00000002     dss_mmw_pe674.oe674 (.const:ti_sysbios_knl_Clock_Module__loggerDefined__C)
                  00819d1e    00000002     dss_mmw_pe674.oe674 (.const:ti_sysbios_knl_Event_Module__id__C)
                  00819d20    00000002     dss_mmw_pe674.oe674 (.const:ti_sysbios_knl_Event_Module__loggerDefined__C)
                  00819d22    00000002     dss_mmw_pe674.oe674 (.const:ti_sysbios_knl_Semaphore_Module__id__C)
                  00819d24    00000002     dss_mmw_pe674.oe674 (.const:ti_sysbios_knl_Semaphore_Module__loggerDefined__C)
                  00819d26    00000002     dss_mmw_pe674.oe674 (.const:ti_sysbios_knl_Task_Module__id__C)
                  00819d28    00000002     dss_mmw_pe674.oe674 (.const:ti_sysbios_knl_Task_Module__loggerDefined__C)
                  00819d2a    00000002     dss_mmw_pe674.oe674 (.const:ti_sysbios_timers_rti_Timer_Module__id__C)
                  00819d2c    00000002     dss_mmw_pe674.oe674 (.const:ti_sysbios_timers_rti_Timer_continueOnSuspend__C)
                  00819d2e    00000002     dss_mmw_pe674.oe674 (.const:ti_sysbios_utils_Load_Module__id__C)
                  00819d30    00000002     dss_mmw_pe674.oe674 (.const:ti_sysbios_utils_Load_Module__loggerDefined__C)
                  00819d32    00000002     dss_mmw_pe674.oe674 (.const:ti_sysbios_utils_Load_autoAddTasks__C)
                  00819d34    00000002     dss_mmw_pe674.oe674 (.const:ti_sysbios_utils_Load_updateInIdle__C)
                  00819d36    00000002     dss_mmw_pe674.oe674 (.const:xdc_runtime_Core_Module__id__C)
                  00819d38    00000002     dss_mmw_pe674.oe674 (.const:xdc_runtime_Error_Module__loggerDefined__C)
                  00819d3a    00000002     dss_mmw_pe674.oe674 (.const:xdc_runtime_Error_maxDepth__C)
                  00819d3c    00000002     dss_mmw_pe674.oe674 (.const:xdc_runtime_Main_Module__id__C)
                  00819d3e    00000002     dss_mmw_pe674.oe674 (.const:xdc_runtime_Main_Module__loggerDefined__C)
                  00819d40    00000002     dss_mmw_pe674.oe674 (.const:xdc_runtime_Memory_Module__id__C)
                  00819d42    00000002     dss_mmw_pe674.oe674 (.const:xdc_runtime_Text_charCnt__C)
                  00819d44    00000002     dss_mmw_pe674.oe674 (.const:xdc_runtime_Text_isLoaded__C)
                  00819d46    00000002     dss_mmw_pe674.oe674 (.const:xdc_runtime_Text_registryModsLastId__C)
                  00819d48    00000002     dss_mmw_pe674.oe674 (.const:xdc_runtime_Text_unnamedModsLastId__C)
                  00819d4a    00000006     --HOLE-- [fill = 0]
                  00819d50    00000001     dss_mmw_pe674.oe674 (.const:xdc_runtime_Text_charTab__A)

.stack     0    0081c5a0    00000700     UNINITIALIZED
                  0081c5a0    00000008     boot.ae674 : boot.oe674 (.stack)
                  0081c5a8    000006f8     --HOLE--

.neardata 
*          0    0081cf98    0000000c     
                  0081cf98    00000004     libadcbuf_xwr16xx.ae674 : ADCBuf.oe674 (.neardata)
                  0081cf9c    00000004     libcrc_xwr16xx.ae674 : crc_xwr16xx.oe674 (.neardata)
                  0081cfa0    00000004     libedma_xwr16xx.ae674 : edma_low_level.oe674 (.neardata)

.cinit     0    00800000    00000000     UNINITIALIZED

.far       0    00819d58    0000164c     UNINITIALIZED
                  00819d58    00000af8     (.common:gMmwDssMCB)
                  0081a850    00000538     (.common:EDMA_object)
                  0081ad88    00000320     dss_mmw_pe674.oe674 (.far:taskStackSection)
                  0081b0a8    00000140     (.common:__TI_tmpnams)
                  0081b1e8    000000f8     (.common:gMMWave_MCB)
                  0081b2e0    00000090     (.common:gHSIHeaderMCB)
                  0081b370    00000010     (.common:edmaDbg)
                  0081b380    00000010     (.common:gCycleLog)
                  0081b390    00000008     (.common:gMMWave_XWR16xxMCB)
                  0081b398    00000008     (.common:parmbuf)
                  0081b3a0    00000004     (.common:ti_sysbios_knl_Task_Instance_State_0_hookEnv__A)

.ovly      0    0081cfa8    00000010     
                  0081cfa8    00000010     (.ovly:_MmwDemo_fastCode_L1PSRAM_copy_table)

.l1data    0    00f00000    00004000     UNINITIALIZED
                  00f00000    00004000     dss_data_path.oe674 (.l1data)

.fastCode 
*          0    20000000    00003b80     RUN ADDR = 00e00000
                  20000000    00000380     dsplib.ae64P : DSP_fft32x32_sa.oe64P (.text:psa)
                  20000380    00000300                  : DSP_fft16x16_sa.oe64P (.text:psa)
                  20000680    000005e0     libmmwavealg_xwr16xx.ae674 : mmwavelib_cfarca_sogo.oe674 (.text:mmwavelib_cfarCadB_SOGO)
                  20000c60    00000400                                : mmwavelib_cfarca.oe674 (.text:mmwavelib_cfarCadBwrap)
                  20001060    00000200                                : mmwavelib_log2abs.oe674 (.text:mmwavelib_log2Abs32)
                  20001260    000001e0                                : mmwavelib_windowing.oe674 (.text:mmwavelib_windowing16x16_evenlen)
                  20001440    000001a0                                : mmwavelib_dftsinglebin.oe674 (.text:mmwavelib_dftSingleBinWithWindow)
                  200015e0    000000a0                                : mmwavelib_vecsum.oe674 (.text:mmwavelib_vecsum)
                  20001680    000000a0                                : mmwavelib_windowing.oe674 (.text:mmwavelib_windowing16x32)
                  20001720    00000060                                : mmwavelib_miscutils.oe674 (.text:mmwavelib_accum16)
                  20001780    00000060                                : mmwavelib_vecsubc.oe674 (.text:mmwavelib_vecsubc)
                  200017e0    00000120     mathlib.ae674 : cossp.oe674 (.text:optasm)
                  20001900    00000120                   : sinsp.oe674 (.text:optasm)
                  20001a20    000000a0                   : sqrtsp.oe674 (.text:optasm)
                  20001ac0    00000060                   : divsp.oe674 (.text:optasm)
                  20001b20    000015a0     dss_data_path.oe674 (.text:MmwDemo_interFrameProcessing)
                  200030c0    00000010     rts6740_elf.lib : push.obj ($Tramp$S$$__c6xabi_push_rts)
                  200030d0    00000010     libedma_xwr16xx.ae674 : edma.oe674 ($Tramp$S$$EDMA_startDmaTransfer)
                  200030e0    00000010     rts6740_elf.lib : memset.obj ($Tramp$S$$memset)
                  200030f0    00000010     dss_data_path.oe674 ($Tramp$S$$MmwDemo_dataPathWait2DInputData)
                  20003100    00000010     libedma_xwr16xx.ae674 : edma.oe674 ($Tramp$S$$EDMA_setSourceAddress)
                  20003110    00000010     dss_data_path.oe674 ($Tramp$S$$MmwDemo_addDopplerCompensation)
                  20003120    00000010     dss_data_path.oe674 ($Tramp$S$$MmwDemo_log2AbsAccum)
                  20003130    00000010     dss_data_path.oe674 ($Tramp$S$$MmwDemo_dataPathWaitTransDetMatrix)
                  20003140    00000010     rx_ch_bias_measure.oe674 ($Tramp$S$$MmwDemo_rangeBiasRxChPhaseMeasure)
                  20003150    00000010     dss_data_path.oe674 ($Tramp$S$$MmwDemo_getDopplerLine)
                  20003160    00000010     libsoc_xwr16xx.ae674 : soc_xwr16xx.oe674 ($Tramp$S$$SOC_translateAddress)
                  20003170    00000010     dss_config_edma_util.oe674 ($Tramp$S$$EDMAutil_triggerType3)
                  20003180    00000010     dss_data_path.oe674 ($Tramp$S$$MmwDemo_dataPathWaitTransDetMatrix2)
                  20003190    00000010     dss_main.oe674 ($Tramp$S$$_MmwDemo_dssAssert)
                  200031a0    00000010     libosal_xwr16xx.ae674 : DebugP_tirtos.oe674 ($Tramp$S$$_DebugP_assert)
                  200031b0    00000010     dss_data_path.oe674 ($Tramp$S$$MmwDemo_cfarPeakGroupingCfarQualified)
                  200031c0    00000010     dss_data_path.oe674 ($Tramp$S$$MmwDemo_Yestimation)
                  200031d0    00000010     dss_data_path.oe674 ($Tramp$S$$MmwDemo_dataPathWait3DInputData)
                  200031e0    00000010     dss_data_path.oe674 ($Tramp$S$$MmwDemo_decodeBPM)
                  200031f0    00000010     rts6740_elf.lib : memcpy64.obj ($Tramp$S$$memcpy)
                  20003200    00000010     dss_data_path.oe674 ($Tramp$S$$MmwDemo_nearFieldCorrection)
                  20003210    00000010     rts6740_elf.lib : push.obj ($Tramp$S$$__c6xabi_pop_rts)
                  20003220    00000200     dss_data_path.oe674 (.text:MmwDemo_interChirpProcessing)
                  20003420    00000010     dss_data_path.oe674 ($Tramp$S$$MmwDemo_dataPathWait1DInputData)
                  20003430    00000010     dss_data_path.oe674 ($Tramp$S$$MmwDemo_dcRangeSignatureCompensation)
                  20003440    00000300     dss_data_path.oe674 (.text:MmwDemo_XYestimation)
                  20003740    00000010     dss_data_path.oe674 ($Tramp$S$$MmwDemo_XYcalc)
                  20003750    00000010     --HOLE-- [fill = 0]
                  20003760    00000420     dss_data_path.oe674 (.text:MmwDemo_cfarPeakGrouping)

.overlay   0    20003b80    00000880     
                  20003b80    00000120     libsoc_xwr16xx.ae674 : soc.oe674 (.text:SOC_init)
                  20003ca0    00000360     dss_main.oe674 (.text:MmwDemo_dssInitTask)
                  20004000    00000100     dss_main.oe674 (.text:main)
                  20004100    00000140     dss_data_path.oe674 (.text:MmwDemo_dataPathInitEdma)
                  20004240    00000010     libedma_xwr16xx.ae674 : edma.oe674 ($Tramp$S$$EDMA_configErrorMonitoring)
                  20004250    00000010                           : edma.oe674 ($Tramp$S$$EDMA_open)
                  20004260    00000010                           : edma.oe674 ($Tramp$S$$EDMA_init)
                  20004270    00000010                           : edma.oe674 ($Tramp$S$$EDMA_getNumInstances)
                  20004280    00000010     sysbios.ae674 : BIOS.obj ($Tramp$S$$ti_sysbios_BIOS_start__E)
                  20004290    00000010     dss_main.oe674 ($Tramp$S$$MmwDemo_dssDataPathInit)
                  200042a0    00000010     dss_main.oe674 ($Tramp$S$$MmwDemo_mboxWrite)
                  200042b0    00000010     sysbios.ae674 : BIOS.obj ($Tramp$S$$ti_sysbios_knl_Task_sleep__E)
                  200042c0    00000010     libmmwave_xwr16xx.ae674 : mmwave.oe674 ($Tramp$S$$MMWave_sync)
                  200042d0    00000010     dss_mmw_pe674.oe674 ($Tramp$S$$xdc_runtime_System_printf__E)
                  200042e0    00000010     libmmwave_xwr16xx.ae674 : mmwave.oe674 ($Tramp$S$$MMWave_init)
                  200042f0    00000010     dss_mmw_pe674.oe674 ($Tramp$S$$ti_sysbios_knl_Event_create)
                  20004300    00000010     ti.targets.rts6000.ae674 : Error.oe674 ($Tramp$S$$xdc_runtime_Error_init__E)
                  20004310    00000010     dss_lvds_stream.oe674 ($Tramp$S$$MmwDemo_LVDSStreamInit)
                  20004320    00000010     dss_mmw_pe674.oe674 ($Tramp$S$$ti_sysbios_knl_Task_create)
                  20004330    00000010     dss_mmw_pe674.oe674 ($Tramp$S$$ti_sysbios_knl_Task_Params__init__S)
                  20004340    00000010     libmailbox_xwr16xx.ae674 : mailbox.oe674 ($Tramp$S$$Mailbox_open)
                  20004350    00000010                              : mailbox.oe674 ($Tramp$S$$Mailbox_Config_init)
                  20004360    00000010     dss_mmw_pe674.oe674 ($Tramp$S$$ti_sysbios_knl_Semaphore_create)
                  20004370    00000010     dss_mmw_pe674.oe674 ($Tramp$S$$ti_sysbios_knl_Semaphore_Params__init__S)
                  20004380    00000010     libmailbox_xwr16xx.ae674 : mailbox.oe674 ($Tramp$S$$Mailbox_init)
                  20004390    00000010     rts6740_elf.lib : push.obj ($Tramp$S$$__c6xabi_pop_rts)
                  200043a0    00000010     libsoc_xwr16xx.ae674 : soc_xwr16xx_dss.oe674 ($Tramp$S$$SOC_deviceInit)
                  200043b0    00000010                          : soc.oe674 ($Tramp$S$$CSL_FEXTR)
                  200043c0    00000010                          : soc.oe674 ($Tramp$S$$SOC_unhaltBSS)
                  200043d0    00000010     rts6740_elf.lib : memset.obj ($Tramp$S$$memset)
                  200043e0    00000010     libosal_xwr16xx.ae674 : MemoryP_tirtos.oe674 ($Tramp$S$$MemoryP_ctrlAlloc)
                  200043f0    00000010     rts6740_elf.lib : push.obj ($Tramp$S$$__c6xabi_push_rts)

.demoSharedMem 
*          0    21080000    00008000     UNINITIALIZED
                  21080000    00008000     dss_main.oe674 (.demoSharedMem)

.l3data    1    20000000    000c0000     UNINITIALIZED
                  20000000    000c0000     dss_data_path.oe674 (.l3data)

.fardata   0    0081b3a8    000011f4     
                  0081b3a8    0000068c     dss_mmw_pe674.oe674 (.fardata)
                  0081ba34    000003f0     libmmwavelink_xwr16xx.ae674 : rl_driver.oe674 (.fardata)
                  0081be24    00000004     rts6740_elf.lib : _lock.obj (.fardata:_lock)
                  0081be28    000001e0                     : defs.obj (.fardata:_ftable)
                  0081c008    000000a0                     : lowlev.obj (.fardata:_stream)
                  0081c0a8    00000080     dss_mmw_pe674.oe674 (.fardata:ti_sysbios_knl_Task_Module_State_0_readyQ__A)
                  0081c128    00000078     rts6740_elf.lib : lowlev.obj (.fardata:_device)
                  0081c1a0    00000078     libcbuff_xwr16xx.ae674 : cbuff_xwr16xx.oe674 (.fardata)
                  0081c218    00000078     dss_mmw_pe674.oe674 (.fardata:ti_sysbios_family_c64p_Hwi_Object__table__V)
                  0081c290    00000050     libmailbox_xwr16xx.ae674 : mailbox.oe674 (.fardata)
                  0081c2e0    0000004c     dss_mmw_pe674.oe674 (.fardata:ti_sysbios_knl_Task_Object__table__V)
                  0081c32c    00000004     rts6740_elf.lib : _lock.obj (.fardata:_unlock)
                  0081c330    00000040     libsoc_xwr16xx.ae674 : soc_xwr16xx.oe674 (.fardata:SOC_TranslateAddr_LUT)
                  0081c370    00000040     dss_mmw_pe674.oe674 (.fardata:ti_sysbios_gates_GateMutex_Object__table__V)
                  0081c3b0    0000003c     dss_mmw_pe674.oe674 (.fardata:ti_sysbios_timers_rti_Timer_Object__table__V)
                  0081c3ec    00000004     rts6740_elf.lib : defs.obj (.fardata)
                  0081c3f0    00000038     libcbuff_xwr16xx.ae674 : cbuff_xwr16xx.oe674 (.fardata:gCBUFFInterfaceFxn)
                  0081c428    00000030     libmailbox_xwr16xx.ae674 : mailbox_xwr16xx.oe674 (.fardata)
                  0081c458    0000001c     dss_mmw_pe674.oe674 (.fardata:ti_sysbios_utils_Load_Module_State_0_taskEnv__A)
                  0081c474    00000004     rts6740_elf.lib : errno.obj (.fardata)
                  0081c478    00000018                     : log.obj (.fardata:A$1)
                  0081c490    00000018     libadcbuf_xwr16xx.ae674 : adcbuf_xwr1xxx.oe674 (.fardata:ADCBuf_config)
                  0081c4a8    00000018     rts6740_elf.lib : log.obj (.fardata:B$2)
                  0081c4c0    00000018     libcbuff_xwr16xx.ae674 : cbuff_xwr16xx.oe674 (.fardata:gInterleavedTransferFxn)
                  0081c4d8    00000018                            : cbuff_xwr16xx.oe674 (.fardata:gMultipleChirpNonInterleavedTransferFxn)
                  0081c4f0    00000018                            : cbuff_xwr16xx.oe674 (.fardata:gNonInterleavedTransferFxn)
                  0081c508    00000018     libsoc_xwr16xx.ae674 : soc_xwr16xx_dss.oe674 (.fardata)
                  0081c520    00000018     dss_mmw_pe674.oe674 (.fardata:ti_sysbios_heaps_HeapMem_Object__table__V)
                  0081c538    00000018     dss_mmw_pe674.oe674 (.fardata:ti_sysbios_timers_rti_Timer_Module_State_0_device__A)
                  0081c550    00000010     dss_mmw_pe674.oe674 (.fardata:ti_sysbios_timers_rti_Timer_Module_State_0_intFreqs__A)
                  0081c560    0000000c     rts6740_elf.lib : exit.obj (.fardata)
                  0081c56c    00000004     --HOLE-- [fill = 0]
                  0081c570    00000008     dss_mmw_pe674.oe674 (.fardata:ti_sysbios_hal_Hwi_Object__table__V)
                  0081c578    00000008     dss_mmw_pe674.oe674 (.fardata:ti_sysbios_timers_rti_Timer_Module_State_0_handles__A)
                  0081c580    00000004     dss_mmw_pe674.oe674 (.fardata:ti_sysbios_gates_GateHwi_Object__table__V)
                  0081c584    00000004     --HOLE-- [fill = 0]
                  0081c588    00000004     dss_mmw_pe674.oe674 (.fardata:ti_sysbios_knl_Task_Module_State_0_idleTask__A)
                  0081c58c    00000004     --HOLE-- [fill = 0]
                  0081c590    00000004     dss_mmw_pe674.oe674 (.fardata:ti_sysbios_utils_Load_Module_State_0_runningTask__A)
                  0081c594    00000004     --HOLE-- [fill = 0]
                  0081c598    00000004     dss_mmw_pe674.oe674 (.fardata:ti_sysbios_utils_Load_Module_State_0_taskStartTime__A)

.switch    0    0081cca0    000001d4     
                  0081cca0    0000004c     dss_main.oe674 (.switch:MmwDemo_mboxReadTask)
                  0081ccec    00000044     libmmwave_xwr16xx.ae674 : mmwave_link.oe674 (.switch:MMWave_asyncEventHandler)
                  0081cd30    00000044     dss_main.oe674 (.switch:MmwDemo_dssMmwaveEventCallbackFxn)
                  0081cd74    00000038     libadcbuf_xwr16xx.ae674 : adcbuf_mmwave.oe674 (.switch:ADCBUF_MMWave_control)
                  0081cdac    00000028                             : adcbuf_mmwave.oe674 (.switch:ADCBUFCmdParamCheck)
                  0081cdd4    00000018     libhsiheader_xwr16xx.ae674 : hsiheader.oe674 (.switch:HSIHeader_createHeader)
                  0081cdec    00000018     libmmwave_xwr16xx.ae674 : mmwave_xwr16xx.oe674 (.switch:MMWave_deviceExecuteFxn)
                  0081ce04    00000010     libadcbuf_xwr16xx.ae674 : adcbuf_mmwave.oe674 (.switch:ADCBUFChannelEnSetOffset)
                  0081ce14    00000010                             : adcbuf_mmwave.oe674 (.switch:ADCBUF_MMWave_getChanBufAddr)
                  0081ce24    00000010     libcbuff_xwr16xx.ae674 : cbuff_lvds.oe674 (.switch:CBUFF_openLVDS)
                  0081ce34    00000010                            : cbuff.oe674 (.switch:CBUFF_setVC)
                  0081ce44    00000010     dss_lvds_stream.oe674 (.switch:MmwDemo_LVDSStreamHwConfig)
                  0081ce54    00000010     libsoc_xwr16xx.ae674 : soc_xwr16xx_dss.oe674 (.switch:SOC_getInAddr_LUTType)
                  0081ce64    00000010                          : soc_xwr16xx_dss.oe674 (.switch:SOC_getOutAddr_LUTType)

.cio       0    0081ce78    00000120     UNINITIALIZED
                  0081ce78    00000120     rts6740_elf.lib : trgmsg.obj (.cio)

MODULE SUMMARY

       Module                         code     ro data   rw data
       ------                         ----     -------   -------
    /home/gtbldadm/nightlybuilds/mmwave_sdk/ti/demo/xwr16xx/mmw/dss/mmw_configPkg_xwr16xx/package/cfg/
       dss_mmw_pe674.oe674            4736     1551      23532  
    +--+------------------------------+--------+---------+---------+
       Total:                         4736     1551      23532  
                                                                
    obj_xwr16xx/
       dss_data_path.oe674            30288    2292      851968 
       dss_main.oe674                 15456    3188      38664  
       dss_lvds_stream.oe674          3344     936       0      
       dss_config_edma_util.oe674     1600     356       0      
       rx_ch_bias_measure.oe674       1664     0         0      
       mmwDemo_monitor.oe674          320      0         0      
    +--+------------------------------+--------+---------+---------+
       Total:                         52672    6772      890632 
                                                                
    /home/gtbldadm/nightlybuilds/mmwave_sdk/scripts/jenkins/../../ti/alg/mmwavelib/lib/libmmwavealg_xwr16xx.ae674
       mmwavelib_cfarca_sogo.oe674    3008     0         0      
       mmwavelib_cfarca.oe674         2048     0         0      
       mmwavelib_windowing.oe674      1280     0         0      
       mmwavelib_log2abs.oe674        1040     64        0      
       mmwavelib_dftsinglebin.oe674   832      0         0      
       mmwavelib_vecsum.oe674         320      0         0      
       mmwavelib_miscutils.oe674      208      0         0      
       mmwavelib_vecsubc.oe674        192      0         0      
    +--+------------------------------+--------+---------+---------+
       Total:                         8928     64        0      
                                                                
    /home/gtbldadm/nightlybuilds/mmwave_sdk/scripts/jenkins/../../ti/control/mmwave/lib/libmmwave_xwr16xx.ae674
       mmwave_link.oe674              3072     88        0      
       mmwave_fullcfg.oe674           2272     24        0      
       mmwave_xwr16xx.oe674           2176     76        8      
       mmwave.oe674                   1216     40        248    
       mmwave_osal.oe674              448      0         0      
       mmwave_listlib.oe674           384      0         0      
    +--+------------------------------+--------+---------+---------+
       Total:                         9568     228       256    
                                                                
    /home/gtbldadm/nightlybuilds/mmwave_sdk/scripts/jenkins/../../ti/control/mmwavelink/lib/libmmwavelink_xwr16xx.ae674
       rl_driver.oe674                8768     236       1008   
       rl_device.oe674                960      0         0      
       rl_controller.oe674            448      0         0      
       rl_monitoring.oe674            288      0         0      
       rl_sensor.oe674                288      0         0      
    +--+------------------------------+--------+---------+---------+
       Total:                         10752    236       1008   
                                                                
    /home/gtbldadm/nightlybuilds/mmwave_sdk/scripts/jenkins/../../ti/drivers/adcbuf/lib/libadcbuf_xwr16xx.ae674
       adcbuf_mmwave.oe674            3200     168       0      
       ADCBuf.oe674                   320      12        4      
       adcbuf_xwr1xxx.oe674           0        16        24     
    +--+------------------------------+--------+---------+---------+
       Total:                         3520     196       28     
                                                                
    /home/gtbldadm/nightlybuilds/mmwave_sdk/scripts/jenkins/../../ti/drivers/cbuff/lib/libcbuff_xwr16xx.ae674
       cbuff_transfer.oe674           6496     264       0      
       cbuff.oe674                    6272     56        0      
       cbuff_lvds.oe674               2208     80        0      
       cbuff_edma.oe674               1248     20        0      
       cbuff_xwr16xx.oe674            0        0         248    
    +--+------------------------------+--------+---------+---------+
       Total:                         16224    420       248    
                                                                
    /home/gtbldadm/nightlybuilds/mmwave_sdk/scripts/jenkins/../../ti/drivers/crc/lib/libcrc_xwr16xx.ae674
       crc.oe674                      2560     12        0      
       crc_xwr16xx.oe674              0        0         4      
    +--+------------------------------+--------+---------+---------+
       Total:                         2560     12        4      
                                                                
    /home/gtbldadm/nightlybuilds/mmwave_sdk/scripts/jenkins/../../ti/drivers/edma/lib/libedma_xwr16xx.ae674
       edma.oe674                     5920     104       1352   
       edma_low_level.oe674           1920     0         4      
       edma_xwr1xxx.oe674             0        104       0      
    +--+------------------------------+--------+---------+---------+
       Total:                         7840     208       1356   
                                                                
    /home/gtbldadm/nightlybuilds/mmwave_sdk/scripts/jenkins/../../ti/drivers/mailbox/lib/libmailbox_xwr16xx.ae674
       mailbox.oe674                  3984     112       80     
       mailbox_xwr16xx.oe674          0        0         48     
    +--+------------------------------+--------+---------+---------+
       Total:                         3984     112       128    
                                                                
    /home/gtbldadm/nightlybuilds/mmwave_sdk/scripts/jenkins/../../ti/drivers/osal/lib/libosal_xwr16xx.ae674
       DebugP_tirtos.oe674            864      0         0      
       HwiP_tirtos.oe674              288      28        0      
       SemaphoreP_tirtos.oe674        256      32        0      
       MemoryP_tirtos.oe674           80       0         0      
    +--+------------------------------+--------+---------+---------+
       Total:                         1488     60        0      
                                                                
    /home/gtbldadm/nightlybuilds/mmwave_sdk/scripts/jenkins/../../ti/drivers/soc/lib/libsoc_xwr16xx.ae674
       soc.oe674                      1696     0         0      
       soc_xwr16xx_dss.oe674          816      92        24     
       soc_xwr16xx.oe674              736      0         64     
    +--+------------------------------+--------+---------+---------+
       Total:                         3248     92        88     
                                                                
    /home/gtbldadm/nightlybuilds/mmwave_sdk/scripts/jenkins/../../ti/utils/hsiheader/lib/libhsiheader_xwr16xx.ae674
       hsiheader.oe674                2304     40        144    
    +--+------------------------------+--------+---------+---------+
       Total:                         2304     40        144    
                                                                
    /home/gtbldadm/nightlybuilds/mmwave_sdk/ti/demo/xwr16xx/mmw/dss/mmw_configPkg_xwr16xx/package/cfg/dss_mmw_pe674.src/sysbios/sysbios.ae674
       BIOS.obj                       29088    1304      0      
       c64p_Hwi_disp_always.obj       512      0         0      
       c64p_Exception_asm.obj         384      0         0      
       c62_TaskSupport_asm.obj        224      0         0      
       c64p_Hwi_asm_switch.obj        96       0         0      
    +--+------------------------------+--------+---------+---------+
       Total:                         30304    1304      0      
                                                                
    /opt/ti/bios_6_53_02_00/packages/ti/targets/rts6000/lib/boot.ae674
       autoinit.oe674                 288      0         0      
       boot.oe674                     160      0         0      
    +--+------------------------------+--------+---------+---------+
       Total:                         448      0         0      
                                                                
    /opt/ti/bios_6_53_02_00/packages/ti/targets/rts6000/lib/ti.targets.rts6000.ae674
       System.oe674                   3232     24        0      
       Text.oe674                     1600     64        0      
       Error.oe674                    1168     88        0      
       Startup.oe674                  896      44        0      
       Core-mem.oe674                 896      0         0      
       Memory.oe674                   448      0         0      
       Core-smem.oe674                416      0         0      
       SysStd.oe674                   224      0         0      
       Assert.oe674                   192      4         0      
       Core-params.oe674              160      0         0      
       Core-label.oe674               128      0         0      
       Gate.oe674                     64       0         0      
       Registry.oe674                 64       0         0      
       xdc_noinit.oe674               32       0         0      
    +--+------------------------------+--------+---------+---------+
       Total:                         9520     224       0      
                                                                
    /opt/ti/dsplib_c64Px_3_4_0_0/packages/ti/dsplib/lib/dsplib.ae64P
       DSP_fft32x32_sa.oe64P          1792     0         0      
       DSP_fft16x16_sa.oe64P          1536     0         0      
    +--+------------------------------+--------+---------+---------+
       Total:                         3328     0         0      
                                                                
    /opt/ti/mathlib_c674x_3_1_2_1/packages/ti/mathlib/lib/mathlib.ae674
       cossp.oe674                    592      0         0      
       sinsp.oe674                    592      0         0      
       sqrtsp.oe674                   336      0         0      
       divsp.oe674                    208      0         0      
    +--+------------------------------+--------+---------+---------+
       Total:                         1728     0         0      
                                                                
    /opt/ti/ti-cgt-c6000_8.1.3/lib/rts6740_elf.lib
       trgdrv.obj                     1664     0         8      
       divd.obj                       1472     0         0      
       lowlev.obj                     960      0         280    
       defs.obj                       0        0         804    
       imath64.obj                    704      0         0      
       divf.obj                       672      0         0      
       fputc.obj                      576      0         0      
       setvbuf.obj                    576      0         0      
       trgmsg.obj                     256      0         288    
       log.obj                        480      0         48     
       fflush.obj                     512      0         0      
       frexp.obj                      448      0         0      
       sqrt.obj                       352      0         0      
       fclose.obj                     320      0         0      
       fseek.obj                      288      0         0      
       memset.obj                     272      0         0      
       _io_perm.obj                   256      0         0      
       exit.obj                       224      0         12     
       divi.obj                       224      0         0      
       llshift.obj                    224      0         0      
       divu.obj                       192      0         0      
       memcpy64.obj                   192      0         0      
       remi.obj                       192      0         0      
       tls.obj                        192      0         0      
       fixfu.obj                      160      0         0      
       fopen.obj                      160      0         0      
       modf.obj                       160      0         0      
       push.obj                       160      0         0      
       remu.obj                       160      0         0      
       fixdu.obj                      128      0         0      
       _lock.obj                      96       0         8      
       args_main.obj                  64       0         0      
       frcmpyd_div.obj                64       0         0      
       log10.obj                      64       0         0      
       strasg.obj                     64       0         0      
       errno.obj                      32       0         4      
    +--+------------------------------+--------+---------+---------+
       Total:                         12560    0         1452   
                                                                
       Stack:                         0        0         1792   
       Linker Generated:              0        16        0      
    +--+------------------------------+--------+---------+---------+
       Grand Total:                   185712   11535     920668 


LINKER GENERATED COPY TABLES

_MmwDemo_fastCode_L1PSRAM_copy_table @ 0081cfa8 records: 1, size/record: 12, table size: 16
	.fastCode: load addr=20000000, load size=00003b80, run addr=00e00000, run size=00003b80, compression=none


FAR CALL TRAMPOLINES

callee name               trampoline name
   callee addr  tramp addr   call addr  call info
--------------  -----------  ---------  ----------------
$.text:mmwavelib_accum16:libmmwavealg_xwr16xx.ae674<mmwavelib_miscutils.oe674>$0x0  $Tramp$S$$mmwavelib_accum16
   00e01720     007fff60     007fb858   dss_data_path.oe674 (.text:MmwDemo_log2AbsAccum)
$.text:mmwavelib_log2Abs32:libmmwavealg_xwr16xx.ae674<mmwavelib_log2abs.oe674>$0x0  $Tramp$S$$mmwavelib_log2Abs32
   00e01060     007fff70     007fb7c4   dss_data_path.oe674 (.text:MmwDemo_log2AbsAccum)
$.text:optasm:mathlib.ae674<divsp.oe674>$0x0  $Tramp$S$$divsp
   00e01ac0     007fff80     007f1e54   dss_data_path.oe674 (.text:MmwDemo_XYcalc)
$.text:MmwDemo_interChirpProcessing:dss_data_path.oe674$0x0  $Tramp$S$$MmwDemo_interChirpProcessing
   00e03220     007fff90     007efb10   dss_data_path.oe674 (.text:MmwDemo_processChirp)
$.text:MmwDemo_interFrameProcessing:dss_data_path.oe674$0x0  $Tramp$S$$MmwDemo_interFrameProcessing
   00e01b20     007fffa0     007ece7c   dss_main.oe674 (.text:MmwDemo_dssDataPathProcessEvents)
$.text:MmwDemo_dataPathInitEdma:dss_data_path.oe674$0x0  $Tramp$S$$MmwDemo_dataPathInitEdma
   20004100     007fffb0     007eb580   dss_main.oe674 (.text:MmwDemo_dssDataPathInit)
$.text:optasm:mathlib.ae674<sinsp.oe674>$0x14  $Tramp$S$$sinsp
   00e01914     007fffc0     007e9a6c   dss_data_path.oe674 (.text:MmwDemo_nearFieldCorrection)
                             007ead34   dss_data_path.oe674 (.text:MmwDemo_genWindow)
                             007f2440   dss_data_path.oe674 (.text:MmwDemo_genDftSinCosTable)
                             007f3140   dss_data_path.oe674 (.text:MmwDemo_dataPathConfigFFTs)
$.text:optasm:mathlib.ae674<cossp.oe674>$0x0  $Tramp$S$$cossp
   00e017e0     007fffd0     007e9a58   dss_data_path.oe674 (.text:MmwDemo_nearFieldCorrection)
                             007ead30   dss_data_path.oe674 (.text:MmwDemo_genWindow)
                             007f24ac   dss_data_path.oe674 (.text:MmwDemo_genDftSinCosTable)
                             007f3138   dss_data_path.oe674 (.text:MmwDemo_dataPathConfigFFTs)
$.text:optasm:mathlib.ae674<sqrtsp.oe674>$0x0  $Tramp$S$$sqrtsp
   00e01a20     007fffe0     007e4b84   rx_ch_bias_measure.oe674 (.text:MmwDemo_rangeBiasRxChPhaseMeasure)
                             007e9954   dss_data_path.oe674 (.text:MmwDemo_nearFieldCorrection)
                             007e9988   dss_data_path.oe674 (.text:MmwDemo_nearFieldCorrection)
                             007e99c0   dss_data_path.oe674 (.text:MmwDemo_nearFieldCorrection)
                             007e99f4   dss_data_path.oe674 (.text:MmwDemo_nearFieldCorrection)
                             007f1e60   dss_data_path.oe674 (.text:MmwDemo_XYcalc)
                             007f1f1c   dss_data_path.oe674 (.text:MmwDemo_XYcalc)
$.text:__push_rts:rts6740_elf.lib<push.obj>$0x0  $Tramp$S$$__c6xabi_push_rts
   00804b80     00e030c0     00e01b20   dss_data_path.oe674 (.text:MmwDemo_interFrameProcessing)
                             00e03220   dss_data_path.oe674 (.text:MmwDemo_interChirpProcessing)
                             00e03440   dss_data_path.oe674 (.text:MmwDemo_XYestimation)
                             00e03760   dss_data_path.oe674 (.text:MmwDemo_cfarPeakGrouping)
$.text:EDMA_startDmaTransfer:libedma_xwr16xx.ae674<edma.oe674>$0x0  $Tramp$S$$EDMA_startDmaTransfer
   007fc5e0     00e030d0     00e01ba8   dss_data_path.oe674 (.text:MmwDemo_interFrameProcessing)
                             00e01d0c   dss_data_path.oe674 (.text:MmwDemo_interFrameProcessing)
                             00e02350   dss_data_path.oe674 (.text:MmwDemo_interFrameProcessing)
                             00e028f8   dss_data_path.oe674 (.text:MmwDemo_interFrameProcessing)
                             00e03240   dss_data_path.oe674 (.text:MmwDemo_interChirpProcessing)
                             00e03294   dss_data_path.oe674 (.text:MmwDemo_interChirpProcessing)
                             00e032b8   dss_data_path.oe674 (.text:MmwDemo_interChirpProcessing)
$.text:memset:rts6740_elf.lib<memset.obj>$0x0  $Tramp$S$$memset
   007fba40     00e030e0     00e01bc8   dss_data_path.oe674 (.text:MmwDemo_interFrameProcessing)
                             00e027e4   dss_data_path.oe674 (.text:MmwDemo_interFrameProcessing)
                             00e02b64   dss_data_path.oe674 (.text:MmwDemo_interFrameProcessing)
                             00e02c80   dss_data_path.oe674 (.text:MmwDemo_interFrameProcessing)
                             00e02d40   dss_data_path.oe674 (.text:MmwDemo_interFrameProcessing)
                             00e02e68   dss_data_path.oe674 (.text:MmwDemo_interFrameProcessing)
                             00e03334   dss_data_path.oe674 (.text:MmwDemo_interChirpProcessing)
                             00e03940   dss_data_path.oe674 (.text:MmwDemo_cfarPeakGrouping)
$.text:MmwDemo_dataPathWait2DInputData:dss_data_path.oe674$0x0  $Tramp$S$$MmwDemo_dataPathWait2DInputData
   007fe7a0     00e030f0     00e01c28   dss_data_path.oe674 (.text:MmwDemo_interFrameProcessing)
$.text:EDMA_setSourceAddress:libedma_xwr16xx.ae674<edma.oe674>$0x0  $Tramp$S$$EDMA_setSourceAddress
   00801880     00e03100     00e01cc4   dss_data_path.oe674 (.text:MmwDemo_interFrameProcessing)
                             00e01cf0   dss_data_path.oe674 (.text:MmwDemo_interFrameProcessing)
$.text:MmwDemo_addDopplerCompensation:dss_data_path.oe674$0x0  $Tramp$S$$MmwDemo_addDopplerCompensation
   007fe5c0     00e03110     00e01fdc   dss_data_path.oe674 (.text:MmwDemo_interFrameProcessing)
                             00e02a88   dss_data_path.oe674 (.text:MmwDemo_interFrameProcessing)
$.text:MmwDemo_log2AbsAccum:dss_data_path.oe674$0x0  $Tramp$S$$MmwDemo_log2AbsAccum
   007fb7a0     00e03120     00e02248   dss_data_path.oe674 (.text:MmwDemo_interFrameProcessing)
                             00e02264   dss_data_path.oe674 (.text:MmwDemo_interFrameProcessing)
$.text:MmwDemo_dataPathWaitTransDetMatrix:dss_data_path.oe674$0x0  $Tramp$S$$MmwDemo_dataPathWaitTransDetMatrix
   007fe980     00e03130     00e02390   dss_data_path.oe674 (.text:MmwDemo_interFrameProcessing)
$.text:MmwDemo_rangeBiasRxChPhaseMeasure:rx_ch_bias_measure.oe674$0x0  $Tramp$S$$MmwDemo_rangeBiasRxChPhaseMeasure
   007e4a00     00e03140     00e0240c   dss_data_path.oe674 (.text:MmwDemo_interFrameProcessing)
$.text:MmwDemo_getDopplerLine:dss_data_path.oe674$0x0  $Tramp$S$$MmwDemo_getDopplerLine
   007f9bc0     00e03150     00e02418   dss_data_path.oe674 (.text:MmwDemo_interFrameProcessing)
                             00e024cc   dss_data_path.oe674 (.text:MmwDemo_interFrameProcessing)
$.text:SOC_translateAddress:libsoc_xwr16xx.ae674<soc_xwr16xx.oe674>$0x0  $Tramp$S$$SOC_translateAddress
   007f9dc0     00e03160     00e02428   dss_data_path.oe674 (.text:MmwDemo_interFrameProcessing)
                             00e02504   dss_data_path.oe674 (.text:MmwDemo_interFrameProcessing)
$.text:EDMAutil_triggerType3:dss_config_edma_util.oe674$0x0  $Tramp$S$$EDMAutil_triggerType3
   007fb0a0     00e03170     00e02458   dss_data_path.oe674 (.text:MmwDemo_interFrameProcessing)
                             00e0252c   dss_data_path.oe674 (.text:MmwDemo_interFrameProcessing)
                             00e02814   dss_data_path.oe674 (.text:MmwDemo_interFrameProcessing)
                             00e0284c   dss_data_path.oe674 (.text:MmwDemo_interFrameProcessing)
$.text:MmwDemo_dataPathWaitTransDetMatrix2:dss_data_path.oe674$0x0  $Tramp$S$$MmwDemo_dataPathWaitTransDetMatrix2
   007fe8e0     00e03180     00e02488   dss_data_path.oe674 (.text:MmwDemo_interFrameProcessing)
$.text:_MmwDemo_dssAssert:dss_main.oe674$0x0  $Tramp$S$$_MmwDemo_dssAssert
   007fcee0     00e03190     00e026d8   dss_data_path.oe674 (.text:MmwDemo_interFrameProcessing)
$.text:_DebugP_assert:libosal_xwr16xx.ae674<DebugP_tirtos.oe674>$0x0  $Tramp$S$$_DebugP_assert
   00804b20     00e031a0     00e026e8   dss_data_path.oe674 (.text:MmwDemo_interFrameProcessing)
$.text:MmwDemo_cfarPeakGroupingCfarQualified:dss_data_path.oe674$0x0  $Tramp$S$$MmwDemo_cfarPeakGroupingCfarQualified
   007e3080     00e031b0     00e02738   dss_data_path.oe674 (.text:MmwDemo_interFrameProcessing)
$.text:MmwDemo_Yestimation:dss_data_path.oe674$0x0  $Tramp$S$$MmwDemo_Yestimation
   007fe520     00e031c0     00e02788   dss_data_path.oe674 (.text:MmwDemo_interFrameProcessing)
$.text:MmwDemo_dataPathWait3DInputData:dss_data_path.oe674$0x0  $Tramp$S$$MmwDemo_dataPathWait3DInputData
   007fe840     00e031d0     00e0288c   dss_data_path.oe674 (.text:MmwDemo_interFrameProcessing)
$.text:MmwDemo_decodeBPM:dss_data_path.oe674$0x0  $Tramp$S$$MmwDemo_decodeBPM
   007fcca0     00e031e0     00e02ad0   dss_data_path.oe674 (.text:MmwDemo_interFrameProcessing)
$.text:memcpy:rts6740_elf.lib<memcpy64.obj>$0x0  $Tramp$S$$memcpy
   007fee80     00e031f0     00e02bac   dss_data_path.oe674 (.text:MmwDemo_interFrameProcessing)
                             00e02c58   dss_data_path.oe674 (.text:MmwDemo_interFrameProcessing)
                             00e02d70   dss_data_path.oe674 (.text:MmwDemo_interFrameProcessing)
                             00e02eb8   dss_data_path.oe674 (.text:MmwDemo_interFrameProcessing)
                             00e02f58   dss_data_path.oe674 (.text:MmwDemo_interFrameProcessing)
                             00e02f8c   dss_data_path.oe674 (.text:MmwDemo_interFrameProcessing)
$.text:MmwDemo_nearFieldCorrection:dss_data_path.oe674$0x0  $Tramp$S$$MmwDemo_nearFieldCorrection
   007e9800     00e03200     00e02da4   dss_data_path.oe674 (.text:MmwDemo_interFrameProcessing)
$.text:__pop_rts:rts6740_elf.lib<push.obj>$0x0  $Tramp$S$$__c6xabi_pop_rts
   00804b60     00e03210     00e03098   dss_data_path.oe674 (.text:MmwDemo_interFrameProcessing)
                             00e03414   dss_data_path.oe674 (.text:MmwDemo_interChirpProcessing)
                             00e03724   dss_data_path.oe674 (.text:MmwDemo_XYestimation)
                             00e03b64   dss_data_path.oe674 (.text:MmwDemo_cfarPeakGrouping)
$.text:MmwDemo_dataPathWait1DInputData:dss_data_path.oe674$0x0  $Tramp$S$$MmwDemo_dataPathWait1DInputData
   007fe660     00e03420     00e032cc   dss_data_path.oe674 (.text:MmwDemo_interChirpProcessing)
$.text:MmwDemo_dcRangeSignatureCompensation:dss_data_path.oe674$0x0  $Tramp$S$$MmwDemo_dcRangeSignatureCompensation
   007e8400     00e03430     00e033d8   dss_data_path.oe674 (.text:MmwDemo_interChirpProcessing)
$.text:MmwDemo_XYcalc:dss_data_path.oe674$0x0  $Tramp$S$$MmwDemo_XYcalc
   007f1e00     00e03740     00e03560   dss_data_path.oe674 (.text:MmwDemo_XYestimation)
                             00e03714   dss_data_path.oe674 (.text:MmwDemo_XYestimation)
$.text:EDMA_configErrorMonitoring:libedma_xwr16xx.ae674<edma.oe674>$0x0  $Tramp$S$$EDMA_configErrorMonitoring
   007ec8a0     20004240     200041c0   dss_data_path.oe674 (.text:MmwDemo_dataPathInitEdma)
$.text:EDMA_open:libedma_xwr16xx.ae674<edma.oe674>$0x0  $Tramp$S$$EDMA_open
   007ebcc0     20004250     20004158   dss_data_path.oe674 (.text:MmwDemo_dataPathInitEdma)
$.text:EDMA_init:libedma_xwr16xx.ae674<edma.oe674>$0x0  $Tramp$S$$EDMA_init
   007f09c0     20004260     20004144   dss_data_path.oe674 (.text:MmwDemo_dataPathInitEdma)
$.text:EDMA_getNumInstances:libedma_xwr16xx.ae674<edma.oe674>$0x0  $Tramp$S$$EDMA_getNumInstances
   008046c0     20004270     20004128   dss_data_path.oe674 (.text:MmwDemo_dataPathInitEdma)
$.text:ti_sysbios_BIOS_start__E:sysbios.ae674<BIOS.obj>$0x0  $Tramp$S$$ti_sysbios_BIOS_start__E
   00804de0     20004280     200040b4   dss_main.oe674 (.text:main)
$.text:MmwDemo_dssDataPathInit:dss_main.oe674$0x0  $Tramp$S$$MmwDemo_dssDataPathInit
   007eb500     20004290     20003f58   dss_main.oe674 (.text:MmwDemo_dssInitTask)
$.text:MmwDemo_mboxWrite:dss_main.oe674$0x0  $Tramp$S$$MmwDemo_mboxWrite
   00803720     200042a0     20003f20   dss_main.oe674 (.text:MmwDemo_dssInitTask)
$.text:ti_sysbios_knl_Task_sleep__E:sysbios.ae674<BIOS.obj>$0x0  $Tramp$S$$ti_sysbios_knl_Task_sleep__E
   007eafa0     200042b0     20003ec8   dss_main.oe674 (.text:MmwDemo_dssInitTask)
$.text:MMWave_sync:libmmwave_xwr16xx.ae674<mmwave.oe674>$0x0  $Tramp$S$$MMWave_sync
   007fe340     200042c0     20003e90   dss_main.oe674 (.text:MmwDemo_dssInitTask)
                             20003ed0   dss_main.oe674 (.text:MmwDemo_dssInitTask)
$.text:xdc_runtime_System_printf__E:dss_mmw_pe674.oe674$0x0  $Tramp$S$$xdc_runtime_System_printf__E
   00804460     200042d0     20003e8c   dss_main.oe674 (.text:MmwDemo_dssInitTask)
                             20003fa0   dss_main.oe674 (.text:MmwDemo_dssInitTask)
                             20003fd0   dss_main.oe674 (.text:MmwDemo_dssInitTask)
                             20003fec   dss_main.oe674 (.text:MmwDemo_dssInitTask)
                             200040d0   dss_main.oe674 (.text:main)
                             20004210   dss_data_path.oe674 (.text:MmwDemo_dataPathInitEdma)
$.text:MMWave_init:libmmwave_xwr16xx.ae674<mmwave.oe674>$0x0  $Tramp$S$$MMWave_init
   007f6f40     200042e0     20003e50   dss_main.oe674 (.text:MmwDemo_dssInitTask)
$.text:ti_sysbios_knl_Event_create:dss_mmw_pe674.oe674$0x0  $Tramp$S$$ti_sysbios_knl_Event_create
   00800b80     200042f0     20003da8   dss_main.oe674 (.text:MmwDemo_dssInitTask)
$.text:xdc_runtime_Error_init__E:ti.targets.rts6000.ae674<Error.oe674>$0x0  $Tramp$S$$xdc_runtime_Error_init__E
   00804320     20004300     20003da4   dss_main.oe674 (.text:MmwDemo_dssInitTask)
$.text:MmwDemo_LVDSStreamInit:dss_lvds_stream.oe674$0x0  $Tramp$S$$MmwDemo_LVDSStreamInit
   007f97c0     20004310     20003d74   dss_main.oe674 (.text:MmwDemo_dssInitTask)
$.text:ti_sysbios_knl_Task_create:dss_mmw_pe674.oe674$0x0  $Tramp$S$$ti_sysbios_knl_Task_create
   007fd660     20004320     20003d64   dss_main.oe674 (.text:MmwDemo_dssInitTask)
                             20003f4c   dss_main.oe674 (.text:MmwDemo_dssInitTask)
                             20003fc0   dss_main.oe674 (.text:MmwDemo_dssInitTask)
                             200040b0   dss_main.oe674 (.text:main)
$.text:ti_sysbios_knl_Task_Params__init__S:dss_mmw_pe674.oe674$0x0  $Tramp$S$$ti_sysbios_knl_Task_Params__init__S
   00805260     20004330     20003d60   dss_main.oe674 (.text:MmwDemo_dssInitTask)
                             20003f2c   dss_main.oe674 (.text:MmwDemo_dssInitTask)
                             20003fa8   dss_main.oe674 (.text:MmwDemo_dssInitTask)
                             20004094   dss_main.oe674 (.text:main)
$.text:Mailbox_open:libmailbox_xwr16xx.ae674<mailbox.oe674>$0x0  $Tramp$S$$Mailbox_open
   007e7440     20004340     20003d24   dss_main.oe674 (.text:MmwDemo_dssInitTask)
$.text:Mailbox_Config_init:libmailbox_xwr16xx.ae674<mailbox.oe674>$0x0  $Tramp$S$$Mailbox_Config_init
   00801b20     20004350     20003cf4   dss_main.oe674 (.text:MmwDemo_dssInitTask)
$.text:ti_sysbios_knl_Semaphore_create:dss_mmw_pe674.oe674$0x0  $Tramp$S$$ti_sysbios_knl_Semaphore_create
   00800c80     20004360     20003ccc   dss_main.oe674 (.text:MmwDemo_dssInitTask)
$.text:ti_sysbios_knl_Semaphore_Params__init__S:dss_mmw_pe674.oe674$0x0  $Tramp$S$$ti_sysbios_knl_Semaphore_Params__init__S
   00805220     20004370     20003cb8   dss_main.oe674 (.text:MmwDemo_dssInitTask)
                             20004114   dss_data_path.oe674 (.text:MmwDemo_dataPathInitEdma)
$.text:Mailbox_init:libmailbox_xwr16xx.ae674<mailbox.oe674>$0x0  $Tramp$S$$Mailbox_init
   007fb5e0     20004380     20003cac   dss_main.oe674 (.text:MmwDemo_dssInitTask)
$.text:__pop_rts:rts6740_elf.lib<push.obj>$0x0  $Tramp$S$$__c6xabi_pop_rts
   00804b60     20004390     20003c84   libsoc_xwr16xx.ae674 : soc.oe674 (.text:SOC_init)
                             20003ff0   dss_main.oe674 (.text:MmwDemo_dssInitTask)
$.text:SOC_deviceInit:libsoc_xwr16xx.ae674<soc_xwr16xx_dss.oe674>$0x0  $Tramp$S$$SOC_deviceInit
   007f9cc0     200043a0     20003c74   libsoc_xwr16xx.ae674 : soc.oe674 (.text:SOC_init)
$.text:CSL_FEXTR:libsoc_xwr16xx.ae674<soc.oe674>$0x0  $Tramp$S$$CSL_FEXTR
   00802f60     200043b0     20003c50   libsoc_xwr16xx.ae674 : soc.oe674 (.text:SOC_init)
                             20003c68                        : soc.oe674 (.text:SOC_init)
$.text:SOC_unhaltBSS:libsoc_xwr16xx.ae674<soc.oe674>$0x0  $Tramp$S$$SOC_unhaltBSS
   00801e80     200043c0     20003c44   libsoc_xwr16xx.ae674 : soc.oe674 (.text:SOC_init)
$.text:memset:rts6740_elf.lib<memset.obj>$0x0  $Tramp$S$$memset
   007fba40     200043d0     20003be4   libsoc_xwr16xx.ae674 : soc.oe674 (.text:SOC_init)
                             20004014   dss_main.oe674 (.text:main)
                             20004028   dss_main.oe674 (.text:main)
$.text:MemoryP_ctrlAlloc:libosal_xwr16xx.ae674<MemoryP_tirtos.oe674>$0x0  $Tramp$S$$MemoryP_ctrlAlloc
   008049e0     200043e0     20003b90   libsoc_xwr16xx.ae674 : soc.oe674 (.text:SOC_init)
$.text:__push_rts:rts6740_elf.lib<push.obj>$0x0  $Tramp$S$$__c6xabi_push_rts
   00804b80     200043f0     20003b80   libsoc_xwr16xx.ae674 : soc.oe674 (.text:SOC_init)
                             20003ca0   dss_main.oe674 (.text:MmwDemo_dssInitTask)

[62 trampolines]
[125 trampoline calls]


SEGMENT ATTRIBUTES

    id tag      seg value
    -- ---      --- -----
     0 PHA_PAGE 13  1    


GLOBAL SYMBOLS: SORTED ALPHABETICALLY BY Name 

address   name                                                         
-------   ----                                                         
00801280  ADCBUF_MMWave_close                                          
007e8060  ADCBUF_MMWave_control                                        
007fa9a0  ADCBUF_MMWave_getCQBufAddr                                   
007f7f80  ADCBUF_MMWave_getChanBufAddr                                 
007fff40  ADCBUF_MMWave_init                                           
007f0240  ADCBUF_MMWave_open                                           
008044a0  ADCBuf_Params_init                                           
0081c490  ADCBuf_config                                                
008044c0  ADCBuf_control                                               
00819a2c  ADCBuf_defaultParams                                         
008044e0  ADCBuf_getChanBufAddr                                        
007ff9c0  ADCBuf_init                                                  
008012e0  ADCBuf_open                                                  
00804c40  C$$EXIT                                                      
008001e0  C$$IO$$                                                      
007e9e40  CBUFF_activateSession                                        
007f8bc0  CBUFF_closeEDMA                                              
007ffa40  CBUFF_closeLVDS                                              
007ea440  CBUFF_configEDMA                                             
007e58e0  CBUFF_createSession                                          
007f6900  CBUFF_deactivateSession                                      
007edce0  CBUFF_deinit                                                 
00804500  CBUFF_deinitLVDS                                             
007fc220  CBUFF_deleteSession                                          
00802d60  CBUFF_finalizeLVDSLinkListParams                             
007e3b00  CBUFF_init                                                   
007e94e0  CBUFF_initLVDS                                               
007fab60  CBUFF_initLVDSLinkListParams                                 
007e8e60  CBUFF_openLVDS                                               
007fdda0  CBUFF_setVC                                                  
007edf00  CBUFF_setupNonInterleaved_ADC                                
007f4ae0  CBUFF_setupNonInterleaved_ADC_CP                             
007f80a0  CBUFF_setupNonInterleaved_ADC_USER                           
007f3a60  CBUFF_setupNonInterleaved_CP_ADC                             
007f4c40  CBUFF_setupNonInterleaved_CP_ADC_CQ                          
007f3be0  CBUFF_setupNonInterleaved_CP_ADC_CQ_USER                     
007f18c0  CBUFF_setupNonInterleaved_MultiChirp_ADC_CP                  
007f0420  CBUFF_setupNonInterleaved_MultiChirp_CP_ADC                  
007f0600  CBUFF_setupNonInterleaved_MultiChirp_CP_ADC_CQ               
007ef440  CBUFF_setupNonInterleaved_MultiChirp_CP_ADC_CQ_USER          
007f07e0  CBUFF_setupTransfer                                          
007ffb40  CBUFF_setup_USER                                             
007fde40  CBUFF_shutdownTransfer                                       
007eb260  CRC_computeSignature                                         
007fc2e0  CRC_getSignature                                             
007fac40  CRC_getTransactionId                                         
00804520  CRC_initConfigParams                                         
007e8b00  CRC_open                                                     
0081ba34  D2H_SYNC_PATTERN                                             
00e00380  DSP_fft16x16                                                 
00e00000  DSP_fft32x32                                                 
007fc3a0  DebugP_log0                                                  
007fc460  DebugP_log1                                                  
007fc520  DebugP_log2                                                  
007fad20  DebugP_log3                                                  
00804560  EDMA3ChannelToParamMap                                       
00804580  EDMA3ClrCCErr                                                
00801520  EDMA3ClrEvt                                                  
00801580  EDMA3ClrIntr                                                 
008015e0  EDMA3ClrMissEvt                                              
00803220  EDMA3DisableDmaEvt                                           
00801640  EDMA3DisableEvtIntr                                          
008045a0  EDMA3DisableQdmaEvt                                          
007fdee0  EDMA3EnableChInShadowReg                                     
008016a0  EDMA3EnableDmaEvt                                            
00801700  EDMA3EnableEvtIntr                                           
008045c0  EDMA3EnableQdmaEvt                                           
008045e0  EDMA3ErrIntrHighStatusGet                                    
00804600  EDMA3GetCCErrStatus                                          
00804620  EDMA3GetErrIntrStatus                                        
00804640  EDMA3GetIntrStatus                                           
007f6b80  EDMA3Init                                                    
00804660  EDMA3IntrStatusHighGet                                       
007ffbc0  EDMA3MapChToEvtQ                                             
00803260  EDMA3MapQdmaChToPaRAM                                        
00804680  EDMA3QdmaClrMissEvt                                          
008046a0  EDMA3QdmaGetErrIntrStatus                                    
00801760  EDMA3SetEvt                                                  
008032a0  EDMA3SetPaRAM                                                
008032e0  EDMA3SetQdmaTrigWord                                         
007ffc40  EDMA_chainChannels                                           
007eba40  EDMA_configChannel                                           
007ec8a0  EDMA_configErrorMonitoring                                   
007fae00  EDMA_configParamSet                                          
007fdf80  EDMA_disableChannel                                          
008046c0  EDMA_getNumInstances                                         
007f09c0  EDMA_init                                                    
007faee0  EDMA_isTransferComplete                                      
007ffcc0  EDMA_linkParamSets                                           
007ebcc0  EDMA_open                                                    
00801820  EDMA_setDestinationAddress                                   
00801880  EDMA_setSourceAddress                                        
007fc5e0  EDMA_startDmaTransfer                                        
008046e0  EDMAsetRegion                                                
007f4da0  EDMAutil_configType1                                         
007f2d80  EDMAutil_configType2b                                        
007f4f00  EDMAutil_configType3                                         
007fb0a0  EDMAutil_triggerType3                                        
0081ba3c  H2D_CNYS_PATTERN                                             
0081ba38  H2D_SYNC_PATTERN                                             
007fe020  HOSTclose                                                    
007f8fc0  HOSTlseek                                                    
007fb180  HOSTopen                                                     
007fc6a0  HOSTread                                                     
007f2f20  HOSTrename                                                   
007fc760  HOSTunlink                                                   
007fb260  HOSTwrite                                                    
007e4000  HSIHeader_createHeader                                       
007f90c0  HSIHeader_deleteHeader                                       
007f0ba0  HSIHeader_init                                               
00804700  HwiP_Params_init                                             
00803320  HwiP_create                                                  
00803360  HwiP_delete                                                  
00804720  HwiP_disable                                                 
00804740  HwiP_disableInterrupt                                        
00804760  HwiP_enableInterrupt                                         
00804780  HwiP_restore                                                 
007f91c0  MMWave_addBpmChirp                                           
007f6e00  MMWave_addChirp                                              
007f92c0  MMWave_addProfile                                            
008047a0  MMWave_decodeErrorLevel                                      
007fc820  MMWave_deviceEventFxn                                        
007e6260  MMWave_deviceExecuteFxn                                      
008047c0  MMWave_deviceGetDeviceInfo                                   
007f1a80  MMWave_deviceInitFxn                                         
007fb340  MMWave_deviceStartFxn                                        
008033a0  MMWave_deviceSyncFxn                                         
008033e0  MMWave_encodeError                                           
007fe0c0  MMWave_execute                                               
007fe160  MMWave_executeLink                                           
007f3d60  MMWave_flushCfg                                              
007f93c0  MMWave_getChirpCfg                                           
007f3ee0  MMWave_getChirpHandle                                        
007fc8e0  MMWave_getNumChirps                                          
007fb420  MMWave_getProfileCfg                                         
007f6f40  MMWave_init                                                  
007fe200  MMWave_initLink                                              
00803420  MMWave_listAdd                                               
008019a0  MMWave_listCat                                               
00804840  MMWave_listGetHead                                           
00804860  MMWave_listGetNext                                           
00803460  MMWave_listRemove                                            
00801a00  MMWave_listRemoveNode                                        
00801a60  MMWave_osalMutexCreate                                       
00804900  MMWave_osalMutexDelete                                       
008034a0  MMWave_osalMutexLock                                         
00804920  MMWave_osalMutexUnlock                                       
00801ac0  MMWave_osalSemCreate                                         
00804940  MMWave_osalSemDelete                                         
00804960  MMWave_osalSemSignal                                         
008034e0  MMWave_osalSemWait                                           
007f4060  MMWave_start                                                 
007ecae0  MMWave_startLink                                             
007fe340  MMWave_sync                                                  
00801b20  Mailbox_Config_init                                          
007f5320  Mailbox_close                                                
008196f0  Mailbox_defaultCfg                                           
007fb5e0  Mailbox_init                                                 
007e7440  Mailbox_open                                                 
007f1c40  Mailbox_read                                                 
007f94c0  Mailbox_readFlush                                            
007ee340  Mailbox_write                                                
007ffe40  Mailbox_writeReset                                           
008049e0  MemoryP_ctrlAlloc                                            
00804a00  MemoryP_ctrlFree                                             
007ee560  MmwDemo_EDMA_CQTransferCompletionCallbackFxn                 
007f95c0  MmwDemo_LVDSStreamDeleteHwSession                            
007f96c0  MmwDemo_LVDSStreamDeleteSwSession                            
007ef840  MmwDemo_LVDSStreamHwConfig                                   
007f97c0  MmwDemo_LVDSStreamInit                                       
007f5480  MmwDemo_LVDSStreamSwConfig                                   
007f9ac0  MmwDemo_LVDSStream_EDMAInit                                  
007f1e00  MmwDemo_XYcalc                                               
00e03440  MmwDemo_XYestimation                                         
007fe520  MmwDemo_Yestimation                                          
007fe5c0  MmwDemo_addDopplerCompensation                               
00e03760  MmwDemo_cfarPeakGrouping                                     
007e3080  MmwDemo_cfarPeakGroupingCfarQualified                        
007f7080  MmwDemo_checkDynamicConfigErrors                             
00800000  MmwDemo_dataPathComputeDerivedConfig                         
007e4500  MmwDemo_dataPathConfigBuffers                                
007f8400  MmwDemo_dataPathConfigCQEdma                                 
007e2ae0  MmwDemo_dataPathConfigEdma                                   
007f30c0  MmwDemo_dataPathConfigFFTs                                   
008035e0  MmwDemo_dataPathInit1Dstate                                  
20004100  MmwDemo_dataPathInitEdma                                     
00801b80  MmwDemo_dataPathObjInit                                      
007fe660  MmwDemo_dataPathWait1DInputData                              
007fe700  MmwDemo_dataPathWait1DOutputData                             
007fe7a0  MmwDemo_dataPathWait2DInputData                              
007fe840  MmwDemo_dataPathWait3DInputData                              
007fe980  MmwDemo_dataPathWaitTransDetMatrix                           
007fe8e0  MmwDemo_dataPathWaitTransDetMatrix2                          
007e8400  MmwDemo_dcRangeSignatureCompensation                         
007fcca0  MmwDemo_decodeBPM                                            
007eb500  MmwDemo_dssDataPathInit                                      
007f55e0  MmwDemo_dssDataPathOutputLogging                             
00801be0  MmwDemo_dssDataPathStartCQEdma                               
008036a0  MmwDemo_edmaErrorCallbackFxn                                 
008036e0  MmwDemo_edmaTransferControllerErrorCallbackFxn               
007f2340  MmwDemo_genDftSinCosTable                                    
007eace0  MmwDemo_genWindow                                            
007e6b80  MmwDemo_gen_twiddle_fft16x16_fast                            
007f0d80  MmwDemo_gen_twiddle_fft32x32_fast                            
007f9bc0  MmwDemo_getDopplerLine                                       
00e03220  MmwDemo_interChirpProcessing                                 
00e01b20  MmwDemo_interFrameProcessing                                 
007fb7a0  MmwDemo_log2AbsAccum                                         
00804a60  MmwDemo_mboxCallback                                         
007e9800  MmwDemo_nearFieldCorrection                                  
007ee780  MmwDemo_parseAdcBufCfg                                       
007e0200  MmwDemo_parseProfileAndChirpConfig                           
00803760  MmwDemo_pow2roundup                                          
007efa40  MmwDemo_processChirp                                         
007f58a0  MmwDemo_quadFit                                              
007e4a00  MmwDemo_rangeBiasRxChPhaseMeasure                            
00804a80  MmwDemo_sleep                                                
00801d60  MmwDemo_waitEndOfChirps                                      
007feac0  SOC_SystemISR                                                
0081c330  SOC_TranslateAddr_LUT                                        
007f2500  SOC_deregisterSysIntListener                                 
007f9cc0  SOC_deviceInit                                               
007fce20  SOC_enableLVDS                                               
008037a0  SOC_getInAddr_LUTType                                        
008037e0  SOC_getOutAddr_LUTType                                       
20003b80  SOC_init                                                     
00803820  SOC_isMMWaveDSSOperational                                   
00803860  SOC_isMMWaveMSSOperational                                   
008038a0  SOC_microDelay                                               
007f5a00  SOC_registerSysIntListener                                   
00801dc0  SOC_setMMWaveDSSLinkState                                    
00801e20  SOC_setMMWaveMSSLinkState                                    
007f9dc0  SOC_translateAddress                                         
007feb60  SOC_triggerDSStoMSSsoftwareInterrupt                         
00801e80  SOC_unhaltBSS                                                
00801ee0  SOC_waitBSSPowerUp                                           
00804aa0  SemaphoreP_Params_init                                       
00800080  SemaphoreP_create                                            
00804ac0  SemaphoreP_delete                                            
00804ae0  SemaphoreP_pend                                              
00804b00  SemaphoreP_post                                              
00804b00  SemaphoreP_postFromClock                                     
00804b00  SemaphoreP_postFromISR                                       
00804b20  _DebugP_assert                                               
000c0000  _L3data_size                                                 
20000000  _L3data_start                                                
007fcee0  _MmwDemo_dssAssert                                           
0081cfa8  _MmwDemo_fastCode_L1PSRAM_copy_table                         
00000000  __ASM__                                                      
0081ce78  __CIOBUF_                                                    
00000080  __ISA__                                                      
00000098  __PLAT__                                                     
000000b8  __TARG__                                                     
UNDEFED   __TI_CINIT_Base                                              
UNDEFED   __TI_CINIT_Limit                                             
UNDEFED   __TI_Handler_Table_Base                                      
UNDEFED   __TI_Handler_Table_Limit                                     
UNDEFED   __TI_INITARRAY_Base                                          
UNDEFED   __TI_INITARRAY_Limit                                         
0081cca0  __TI_STACK_END                                               
00000700  __TI_STACK_SIZE                                              
0081cf98  __TI_STATIC_BASE                                             
UNDEFED   __TI_TLS_INIT_Base                                           
UNDEFED   __TI_TLS_INIT_Limit                                          
007fec00  __TI_cleanup                                                 
0081c560  __TI_cleanup_ptr                                             
007f7300  __TI_closefile                                               
007fcfa0  __TI_doflush                                                 
0081c564  __TI_dtors_ptr                                               
0081c568  __TI_enable_exit_profile_output                              
008038e0  __TI_frcmpyd_div                                             
0081c3ec  __TI_ft_end                                                  
ffffffff  __TI_pprof_out_hndl                                          
ffffffff  __TI_prof_data_size                                          
ffffffff  __TI_prof_data_start                                         
00800100  __TI_readmsg                                                 
0081cfa8  __TI_table__MmwDemo_fastCode_L1PSRAM_copy_table              
007fda20  __TI_tls_init                                                
0081b0a8  __TI_tmpnams                                                 
00800180  __TI_writemsg                                                
007f9ec0  __TI_wrt_ok                                                  
000000e0  __TRDR__                                                     
ffffffff  __binit__                                                    
007e2520  __c6xabi_divd                                                
007eb7a0  __c6xabi_divf                                                
007fb880  __c6xabi_divi                                                
007fd060  __c6xabi_divu                                                
007ebf20  __c6xabi_divull                                              
00804b40  __c6xabi_errno_addr                                          
00800200  __c6xabi_fixdu                                               
007feca0  __c6xabi_fixfu                                               
00800280  __c6xabi_llshl                                               
00801f40  __c6xabi_llshru                                              
00804b60  __c6xabi_pop_rts                                             
00804b80  __c6xabi_push_rts                                            
007fd120  __c6xabi_remi                                                
007fed40  __c6xabi_remu                                                
00803920  __c6xabi_strasgi_64plus                                      
ffffffff  __c_args__                                                   
007fb880  __divi                                                       
007fd060  __divu                                                       
0081c474  __errno                                                      
00804b60  __pop_rts                                                    
00804b80  __push_rts                                                   
007fd120  __remi                                                       
007fed40  __remu                                                       
00803920  __strasgi_64plus                                             
00804ba0  __xdc__init                                                  
0081ba30  __xdc__init__addr                                            
00803960  _args_main                                                   
007f8520  _auto_init_elf                                               
007fede0  _c_int00                                                     
0081be28  _ftable                                                      
0081be24  _lock                                                        
00804bc0  _nop                                                         
00804be0  _register_lock                                               
00804c00  _register_unlock                                             
0081c5a0  _stack                                                       
00801fa0  _subcull                                                     
0081c32c  _unlock                                                      
00804c40  abort                                                        
ffffffff  binit                                                        
007fb960  close                                                        
00e017e0  cossp                                                        
00e01ac0  divsp                                                        
0081b370  edmaDbg                                                      
0081c474  errno                                                        
007fd1e0  exit                                                         
007f7440  fflush                                                       
007ee9a0  fputc                                                        
008039e0  free                                                         
007f26c0  frexp                                                        
007f26c0  frexpl                                                       
007f8640  fseek                                                        
008199a4  gADCBufFxnTable                                              
00819a00  gADCBufHwCfg                                                 
0081c1a0  gCBUFFHwAttribute                                            
0081c3f0  gCBUFFInterfaceFxn                                           
00811620  gCQRxSatMonMemory                                            
00811a20  gCQRxSigImgMemory                                            
0081cf9c  gCRCRegister                                                 
0081b380  gCycleLog                                                    
008192f0  gEdmaHwAttrs                                                 
0081b2e0  gHSIHeaderMCB                                                
21080000  gHSRAM                                                       
0081c4c0  gInterleavedTransferFxn                                      
0081b1e8  gMMWave_MCB                                                  
0081b390  gMMWave_XWR16xxMCB                                           
0081c440  gMailboxDssBssHwCfg                                          
0081c428  gMailboxDssMssHwCfg                                          
0081c290  gMailboxMCB                                                  
00819d58  gMmwDssMCB                                                   
00f00000  gMmwL1                                                       
00805620  gMmwL2                                                       
20000000  gMmwL3                                                       
0081c4d8  gMultipleChirpNonInterleavedTransferFxn                      
0081c4f0  gNonInterleavedTransferFxn                                   
0081c508  gSOCHwAttrib                                                 
007f0f60  log                                                          
00803a20  log10                                                        
00803a20  log10l                                                       
007f0f60  logl                                                         
00802060  lseek                                                        
20004000  main                                                         
00802ba0  malloc                                                       
007fee80  memcpy                                                       
007fba40  memset                                                       
00800380  mmwDemo_cfgAnalogMonitor                                     
008020c0  mmwDemo_cfgRxSaturationMonitor                               
00802120  mmwDemo_cfgRxSigImgMonitor                                   
00e01720  mmwavelib_accum16                                            
00e00680  mmwavelib_cfarCadB_SOGO                                      
00e00c60  mmwavelib_cfarCadBwrap                                       
00e01440  mmwavelib_dftSingleBinWithWindow                             
00e01060  mmwavelib_log2Abs32                                          
00e01780  mmwavelib_vecsubc                                            
00e015e0  mmwavelib_vecsum                                             
00e01260  mmwavelib_windowing16x16_evenlen                             
00e01680  mmwavelib_windowing16x32                                     
007fef20  modf                                                         
007fef20  modfl                                                        
007ee9a0  putc                                                         
00804c60  putchar                                                      
0081cfa0  regionId                                                     
00800f00  remove                                                       
00803a60  rlAppendDummy                                                
007fefc0  rlAppendSubBlock                                             
00802180  rlDeviceGetMssVersion                                        
00803aa0  rlDeviceGetRfVersion                                         
007fbb20  rlDeviceGetVersion                                           
00800400  rlDeviceIdentifyCmdDir                                       
007f9fc0  rlDevicePowerOff                                             
007f7580  rlDevicePowerOn                                              
007f8760  rlDriverAsyncEventHandler                                    
00803ae0  rlDriverCalCRC                                               
007fbc00  rlDriverCalChkSum                                            
007eaa00  rlDriverCmdInvoke                                            
007ecf60  rlDriverCmdSendRetry                                         
008021e0  rlDriverConstructInMsg                                       
007f3400  rlDriverDeInit                                               
007fd2a0  rlDriverExecuteGetApi                                        
007ff060  rlDriverExecuteSetApi                                        
00804c80  rlDriverGetHandle                                            
00804ca0  rlDriverGetPlatformId                                        
007fbce0  rlDriverHostIrqHandler                                       
007ed1a0  rlDriverInit                                                 
00804cc0  rlDriverIsDeviceMapValid                                     
007f76c0  rlDriverMsgCmdReply                                          
007ec180  rlDriverMsgRead                                              
007f5b60  rlDriverMsgReadCmdCtx                                        
007fbdc0  rlDriverMsgReadSpawnCtx                                      
007f41e0  rlDriverMsgWrite                                             
00800480  rlDriverOsiInit                                              
007fbea0  rlDriverProcRdMsg                                            
007f1140  rlDriverRdVerifyMsg                                          
007e7c80  rlDriverRxHdrRead                                            
007fa2c0  rlDriverValidateHdr                                          
007ff100  rlDriverVerifyCRC                                            
007f5cc0  rlDriverWaitForResponse                                      
00802240  rlEnableContMode                                             
007ff1a0  rlGetSubBlock                                                
00804ce0  rlGetSubBlockId                                              
00804d00  rlGetSubBlockLen                                             
008022a0  rlRfAnaMonConfig                                             
00802300  rlRfRunTimeCalibConfig                                       
00802360  rlRfRxIfSatMonConfig                                         
008023c0  rlRfRxSigImgMonConfig                                        
00802420  rlSensorStart                                                
0081bd24  rl_rxMsg                                                     
0081bc24  rl_txMsg                                                     
007ed3e0  setvbuf                                                      
00e01914  sinsp                                                        
007f5e20  sqrt                                                         
007f5e20  sqrtl                                                        
00e01a20  sqrtsp                                                       
0081b3c8  ti_sysbios_BIOS_Module__state__V                             
00803e60  ti_sysbios_BIOS_RtsGateProxy_Handle__label__S                
00804d20  ti_sysbios_BIOS_RtsGateProxy_enter__E                        
00804d40  ti_sysbios_BIOS_RtsGateProxy_leave__E                        
00805000  ti_sysbios_BIOS_RtsGateProxy_query__E                        
00800500  ti_sysbios_BIOS_atExitFunc__I                                
00802480  ti_sysbios_BIOS_errorRaiseHook__I                            
00803b20  ti_sysbios_BIOS_exitFunc__I                                  
00804d60  ti_sysbios_BIOS_getCpuFreq__E                                
00804d80  ti_sysbios_BIOS_linkedWithIncorrectBootLibrary__E            
00804da0  ti_sysbios_BIOS_nullFunc__I                                  
00800580  ti_sysbios_BIOS_registerRTSLock__I                           
008024e0  ti_sysbios_BIOS_removeRTSLock__I                             
00803b60  ti_sysbios_BIOS_rtsLock__I                                   
00803ba0  ti_sysbios_BIOS_rtsUnlock__I                                 
00804dc0  ti_sysbios_BIOS_setThreadType__E                             
00802540  ti_sysbios_BIOS_startFunc__I                                 
00804de0  ti_sysbios_BIOS_start__E                                     
00804e00  ti_sysbios_family_c62_TaskSupport_Module__startupDone__S     
008039a0  ti_sysbios_family_c62_TaskSupport_buildTaskStack             
00804e20  ti_sysbios_family_c62_TaskSupport_checkStack__E              
00804e40  ti_sysbios_family_c62_TaskSupport_getStackAlignment__E       
00804c20  ti_sysbios_family_c62_TaskSupport_glue                       
008192ec  ti_sysbios_family_c62_TaskSupport_stackAlignment__C          
008025a0  ti_sysbios_family_c62_TaskSupport_start__E                   
00800300  ti_sysbios_family_c62_TaskSupport_swap__E                    
008199cc  ti_sysbios_family_c64p_Cache_E_invalidL1CacheSize__C         
00819a44  ti_sysbios_family_c64p_Cache_E_invalidL2CacheSize__C         
00819a78  ti_sysbios_family_c64p_Cache_MAR0_31__C                      
00819a7c  ti_sysbios_family_c64p_Cache_MAR128_159__C                   
00819a80  ti_sysbios_family_c64p_Cache_MAR160_191__C                   
00819a84  ti_sysbios_family_c64p_Cache_MAR192_223__C                   
00819a88  ti_sysbios_family_c64p_Cache_MAR224_255__C                   
00819a8c  ti_sysbios_family_c64p_Cache_MAR32_63__C                     
00819a90  ti_sysbios_family_c64p_Cache_MAR64_95__C                     
00819a94  ti_sysbios_family_c64p_Cache_MAR96_127__C                    
00819d08  ti_sysbios_family_c64p_Cache_Module__id__C                   
0081b3ec  ti_sysbios_family_c64p_Cache_Module__state__V                
007fbf80  ti_sysbios_family_c64p_Cache_Module_startup__E               
007fd360  ti_sysbios_family_c64p_Cache_getL1DInitSize__I               
007fd420  ti_sysbios_family_c64p_Cache_getL1PInitSize__I               
007fc060  ti_sysbios_family_c64p_Cache_getL2InitSize__I                
00004000  ti_sysbios_family_c64p_Cache_l1dSize                         
00004000  ti_sysbios_family_c64p_Cache_l1pSize                         
00000000  ti_sysbios_family_c64p_Cache_l2Size                          
00800600  ti_sysbios_family_c64p_Cache_marInit__I                      
00802600  ti_sysbios_family_c64p_Cache_setMar__E                       
00802660  ti_sysbios_family_c64p_Cache_setSize__E                      
00819a98  ti_sysbios_family_c64p_EventCombiner_A_invalidEventId__C     
00819a10  ti_sysbios_family_c64p_EventCombiner_EVTMASK__C              
00819a9c  ti_sysbios_family_c64p_EventCombiner_E_unpluggedEvent__C     
00819aa0  ti_sysbios_family_c64p_EventCombiner_Module__diagsEnabled__C 
00819aa4  ti_sysbios_family_c64p_EventCombiner_Module__diagsIncluded__C
00819aa8  ti_sysbios_family_c64p_EventCombiner_Module__diagsMask__C    
00819d0a  ti_sysbios_family_c64p_EventCombiner_Module__id__C           
0081b3f0  ti_sysbios_family_c64p_EventCombiner_Module__state__V        
008026c0  ti_sysbios_family_c64p_EventCombiner_Module_startup__E       
00803be0  ti_sysbios_family_c64p_EventCombiner_disableEvent__E         
007f8880  ti_sysbios_family_c64p_EventCombiner_dispatchPlug__E         
007f35a0  ti_sysbios_family_c64p_EventCombiner_dispatch__E             
00803c20  ti_sysbios_family_c64p_EventCombiner_enableEvent__E          
00802720  ti_sysbios_family_c64p_EventCombiner_unused__E               
00819aac  ti_sysbios_family_c64p_Exception_E_exceptionMax__C           
00819d0c  ti_sysbios_family_c64p_Exception_Module__id__C               
0081b7f0  ti_sysbios_family_c64p_Exception_Module__state__V            
00800680  ti_sysbios_family_c64p_Exception_Module_startup__E           
007f4360  ti_sysbios_family_c64p_Exception_dispatch__E                 
00819ab0  ti_sysbios_family_c64p_Exception_exceptionHook__C            
00803c60  ti_sysbios_family_c64p_Exception_externalHandler__I          
00819ab4  ti_sysbios_family_c64p_Exception_externalHook__C             
007e1e20  ti_sysbios_family_c64p_Exception_handler__I                  
007f44e0  ti_sysbios_family_c64p_Exception_internalHandler__I          
00819ab8  ti_sysbios_family_c64p_Exception_internalHook__C             
00803ca0  ti_sysbios_family_c64p_Exception_nmiHandler__I               
00819abc  ti_sysbios_family_c64p_Exception_nmiHook__C                  
00819d0e  ti_sysbios_family_c64p_Exception_useInternalBuffer__C        
007e0000  ti_sysbios_family_c64p_Hwi0                                  
00819ac0  ti_sysbios_family_c64p_Hwi_LD_end__C                         
00819ac4  ti_sysbios_family_c64p_Hwi_LM_begin__C                       
00819ac8  ti_sysbios_family_c64p_Hwi_Module__diagsEnabled__C           
00819acc  ti_sysbios_family_c64p_Hwi_Module__diagsIncluded__C          
00819ad0  ti_sysbios_family_c64p_Hwi_Module__diagsMask__C              
00819d10  ti_sysbios_family_c64p_Hwi_Module__id__C                     
00819d12  ti_sysbios_family_c64p_Hwi_Module__loggerDefined__C          
00819ad4  ti_sysbios_family_c64p_Hwi_Module__loggerFxn1__C             
00819ad8  ti_sysbios_family_c64p_Hwi_Module__loggerFxn8__C             
00819adc  ti_sysbios_family_c64p_Hwi_Module__loggerObj__C              
0081b820  ti_sysbios_family_c64p_Hwi_Module__root__V                   
00804e60  ti_sysbios_family_c64p_Hwi_Module__startupDone__F            
00804e60  ti_sysbios_family_c64p_Hwi_Module__startupDone__S            
0081b828  ti_sysbios_family_c64p_Hwi_Module__state__V                  
007ff240  ti_sysbios_family_c64p_Hwi_Module_startup__E                 
0081c218  ti_sysbios_family_c64p_Hwi_Object__table__V                  
00804e80  ti_sysbios_family_c64p_Hwi_clearInterrupt__E                 
00803ce0  ti_sysbios_family_c64p_Hwi_disableIER__E                     
00804ea0  ti_sysbios_family_c64p_Hwi_disableInterrupt__E               
007efc40  ti_sysbios_family_c64p_Hwi_dispatchAlways                    
00803d20  ti_sysbios_family_c64p_Hwi_dispatchC__I                      
007eebc0  ti_sysbios_family_c64p_Hwi_dispatchCore__I                   
00803d60  ti_sysbios_family_c64p_Hwi_enableIER__E                      
00804ec0  ti_sysbios_family_c64p_Hwi_enableInterrupt__E                
00800700  ti_sysbios_family_c64p_Hwi_eventMap__E                       
00803da0  ti_sysbios_family_c64p_Hwi_getEventId__E                     
00804ee0  ti_sysbios_family_c64p_Hwi_getIsrStackAddress__I             
007ff2e0  ti_sysbios_family_c64p_Hwi_getStackInfo__E                   
007e0000  ti_sysbios_family_c64p_Hwi_int0                              
007e0020  ti_sysbios_family_c64p_Hwi_int1                              
007e0140  ti_sysbios_family_c64p_Hwi_int10                             
007e0160  ti_sysbios_family_c64p_Hwi_int11                             
007e0180  ti_sysbios_family_c64p_Hwi_int12                             
007e01a0  ti_sysbios_family_c64p_Hwi_int13                             
007e01c0  ti_sysbios_family_c64p_Hwi_int14                             
007e01e0  ti_sysbios_family_c64p_Hwi_int15                             
007e0040  ti_sysbios_family_c64p_Hwi_int2                              
007e0060  ti_sysbios_family_c64p_Hwi_int3                              
007e0080  ti_sysbios_family_c64p_Hwi_int4                              
007e00a0  ti_sysbios_family_c64p_Hwi_int5                              
007e00c0  ti_sysbios_family_c64p_Hwi_int6                              
007e00e0  ti_sysbios_family_c64p_Hwi_int7                              
007e0100  ti_sysbios_family_c64p_Hwi_int8                              
007e0120  ti_sysbios_family_c64p_Hwi_int9                              
00804f00  ti_sysbios_family_c64p_Hwi_startup__E                        
00802000  ti_sysbios_family_c64p_Hwi_switchAndDispatch__I              
00804f20  ti_sysbios_family_c64p_Hwi_switchFromBootStack__E            
00804f40  ti_sysbios_family_c64p_TimestampProvider_Module_startup__E   
00804f60  ti_sysbios_family_c64p_TimestampProvider_get32__E            
00804d60  ti_sysbios_family_c64p_TimestampProvider_getFreq__E          
00803de0  ti_sysbios_gates_GateHwi_Handle__label__S                    
00804f80  ti_sysbios_gates_GateHwi_Instance_init__E                    
00819714  ti_sysbios_gates_GateHwi_Module__FXNS__C                     
0081b894  ti_sysbios_gates_GateHwi_Module__root__V                     
008197c4  ti_sysbios_gates_GateHwi_Object__DESC__C                     
008198f0  ti_sysbios_gates_GateHwi_Object__PARAMS__C                   
00800780  ti_sysbios_gates_GateHwi_Object__create__S                   
00803e20  ti_sysbios_gates_GateHwi_Object__delete__S                   
0081c580  ti_sysbios_gates_GateHwi_Object__table__V                    
00804fa0  ti_sysbios_gates_GateHwi_enter__E                            
00804fc0  ti_sysbios_gates_GateHwi_leave__E                            
00804fe0  ti_sysbios_gates_GateHwi_query__E                            
00819ae0  ti_sysbios_gates_GateMutex_A_badContext__C                   
00803e60  ti_sysbios_gates_GateMutex_Handle__label__S                  
00819ae4  ti_sysbios_gates_GateMutex_Instance_State_sem__O             
00803ea0  ti_sysbios_gates_GateMutex_Instance_finalize__E              
00803ee0  ti_sysbios_gates_GateMutex_Instance_init__E                  
00819738  ti_sysbios_gates_GateMutex_Module__FXNS__C                   
00819ae8  ti_sysbios_gates_GateMutex_Module__diagsEnabled__C           
00819aec  ti_sysbios_gates_GateMutex_Module__diagsIncluded__C          
00819af0  ti_sysbios_gates_GateMutex_Module__diagsMask__C              
00819d14  ti_sysbios_gates_GateMutex_Module__id__C                     
0081b89c  ti_sysbios_gates_GateMutex_Module__root__V                   
008197e4  ti_sysbios_gates_GateMutex_Object__DESC__C                   
00819908  ti_sysbios_gates_GateMutex_Object__PARAMS__C                 
00800800  ti_sysbios_gates_GateMutex_Object__create__S                 
00802780  ti_sysbios_gates_GateMutex_Object__delete__S                 
0081c370  ti_sysbios_gates_GateMutex_Object__table__V                  
007f7800  ti_sysbios_gates_GateMutex_enter__E                          
00803f20  ti_sysbios_gates_GateMutex_leave__E                          
00805000  ti_sysbios_gates_GateMutex_query__E                          
00819af4  ti_sysbios_hal_Hwi_E_stackOverflow__C                        
00804e60  ti_sysbios_hal_Hwi_HwiProxy_Module__startupDone__S           
00804e80  ti_sysbios_hal_Hwi_HwiProxy_clearInterrupt__E                
00804ea0  ti_sysbios_hal_Hwi_HwiProxy_disableInterrupt__E              
00804ec0  ti_sysbios_hal_Hwi_HwiProxy_enableInterrupt__E               
007ff2e0  ti_sysbios_hal_Hwi_HwiProxy_getStackInfo__E                  
00804f00  ti_sysbios_hal_Hwi_HwiProxy_startup__E                       
00804f20  ti_sysbios_hal_Hwi_HwiProxy_switchFromBootStack__E           
00819d16  ti_sysbios_hal_Hwi_Module__id__C                             
0081b8a4  ti_sysbios_hal_Hwi_Module__root__V                           
00805020  ti_sysbios_hal_Hwi_Module_startup__E                         
0081c570  ti_sysbios_hal_Hwi_Object__table__V                          
00800880  ti_sysbios_hal_Hwi_checkStack                                
00800900  ti_sysbios_hal_Hwi_initStack                                 
00819af8  ti_sysbios_heaps_HeapMem_A_align__C                          
00819afc  ti_sysbios_heaps_HeapMem_A_heapSize__C                       
00819b00  ti_sysbios_heaps_HeapMem_A_invalidFree__C                    
00819b04  ti_sysbios_heaps_HeapMem_A_zeroBlock__C                      
00819b08  ti_sysbios_heaps_HeapMem_E_memory__C                         
00803f60  ti_sysbios_heaps_HeapMem_Handle__label__S                    
00812220  ti_sysbios_heaps_HeapMem_Instance_State_0_buf__A             
007eede0  ti_sysbios_heaps_HeapMem_Instance_init__E                    
00803e60  ti_sysbios_heaps_HeapMem_Module_GateProxy_Handle__label__S   
00805040  ti_sysbios_heaps_HeapMem_Module_GateProxy_enter__E           
00805060  ti_sysbios_heaps_HeapMem_Module_GateProxy_leave__E           
00805000  ti_sysbios_heaps_HeapMem_Module_GateProxy_query__E           
008196a0  ti_sysbios_heaps_HeapMem_Module__FXNS__C                     
00819b0c  ti_sysbios_heaps_HeapMem_Module__diagsEnabled__C             
00819b10  ti_sysbios_heaps_HeapMem_Module__diagsIncluded__C            
00819b14  ti_sysbios_heaps_HeapMem_Module__diagsMask__C                
00819b18  ti_sysbios_heaps_HeapMem_Module__gateObj__C                  
00819d18  ti_sysbios_heaps_HeapMem_Module__id__C                       
0081b8ac  ti_sysbios_heaps_HeapMem_Module__root__V                     
00819804  ti_sysbios_heaps_HeapMem_Object__DESC__C                     
0081975c  ti_sysbios_heaps_HeapMem_Object__PARAMS__C                   
00819b1c  ti_sysbios_heaps_HeapMem_Object__count__C                    
00800980  ti_sysbios_heaps_HeapMem_Object__create__S                   
00803fa0  ti_sysbios_heaps_HeapMem_Object__delete__S                   
00803fe0  ti_sysbios_heaps_HeapMem_Object__get__S                      
0081c520  ti_sysbios_heaps_HeapMem_Object__table__V                    
007e5da0  ti_sysbios_heaps_HeapMem_allocUnprotected__E                 
007ff380  ti_sysbios_heaps_HeapMem_alloc__E                            
007e6fe0  ti_sysbios_heaps_HeapMem_freeUnprotected__E                  
00800a00  ti_sysbios_heaps_HeapMem_free__E                             
007fd4e0  ti_sysbios_heaps_HeapMem_getStats__E                         
00800a80  ti_sysbios_heaps_HeapMem_init__I                             
00805080  ti_sysbios_heaps_HeapMem_isBlocking__E                       
00819b20  ti_sysbios_heaps_HeapMem_reqAlign__C                         
008050a0  ti_sysbios_heaps_HeapMem_restore__E                          
00819b24  ti_sysbios_knl_Clock_LM_begin__C                             
00819b28  ti_sysbios_knl_Clock_LM_tick__C                              
00819b2c  ti_sysbios_knl_Clock_LW_delayed__C                           
00819b30  ti_sysbios_knl_Clock_Module_State_clockQ__O                  
00819b34  ti_sysbios_knl_Clock_Module__diagsEnabled__C                 
00819b38  ti_sysbios_knl_Clock_Module__diagsIncluded__C                
00819b3c  ti_sysbios_knl_Clock_Module__diagsMask__C                    
00819d1a  ti_sysbios_knl_Clock_Module__id__C                           
00819d1c  ti_sysbios_knl_Clock_Module__loggerDefined__C                
00819b40  ti_sysbios_knl_Clock_Module__loggerFxn1__C                   
00819b44  ti_sysbios_knl_Clock_Module__loggerFxn2__C                   
00819b48  ti_sysbios_knl_Clock_Module__loggerObj__C                    
0081b8b4  ti_sysbios_knl_Clock_Module__root__V                         
0081b8bc  ti_sysbios_knl_Clock_Module__state__V                        
008027e0  ti_sysbios_knl_Clock_Module_startup__E                       
008052e0  ti_sysbios_knl_Clock_TimerProxy_Module__startupDone__S       
008050c0  ti_sysbios_knl_Clock_TimerProxy_getMaxTicks__E               
007fd720  ti_sysbios_knl_Clock_TimerProxy_startup__E                   
00804020  ti_sysbios_knl_Clock_addI__E                                 
00800b00  ti_sysbios_knl_Clock_doTick__I                               
007fd5a0  ti_sysbios_knl_Clock_logTick__E                              
008050e0  ti_sysbios_knl_Clock_removeI__E                              
00805100  ti_sysbios_knl_Clock_startI__E                               
007ec3e0  ti_sysbios_knl_Clock_workFunc__E                             
00819b4c  ti_sysbios_knl_Event_A_badContext__C                         
00819b50  ti_sysbios_knl_Event_A_eventInUse__C                         
00819b54  ti_sysbios_knl_Event_A_nullEventId__C                        
00819b58  ti_sysbios_knl_Event_A_nullEventMasks__C                     
00819b5c  ti_sysbios_knl_Event_A_pendTaskDisabled__C                   
00819b60  ti_sysbios_knl_Event_Instance_State_pendQ__O                 
00804060  ti_sysbios_knl_Event_Instance_init__E                        
00819b64  ti_sysbios_knl_Event_LM_pend__C                              
00819b68  ti_sysbios_knl_Event_LM_post__C                              
00819b6c  ti_sysbios_knl_Event_Module__diagsEnabled__C                 
00819b70  ti_sysbios_knl_Event_Module__diagsIncluded__C                
00819b74  ti_sysbios_knl_Event_Module__diagsMask__C                    
00819d1e  ti_sysbios_knl_Event_Module__id__C                           
00819d20  ti_sysbios_knl_Event_Module__loggerDefined__C                
00819b78  ti_sysbios_knl_Event_Module__loggerFxn4__C                   
00819b7c  ti_sysbios_knl_Event_Module__loggerFxn8__C                   
00819b80  ti_sysbios_knl_Event_Module__loggerObj__C                    
0081b8e8  ti_sysbios_knl_Event_Module__root__V                         
00819824  ti_sysbios_knl_Event_Object__DESC__C                         
00819920  ti_sysbios_knl_Event_Object__PARAMS__C                       
008040a0  ti_sysbios_knl_Event_checkEvents__I                          
00800b80  ti_sysbios_knl_Event_create                                  
00802840  ti_sysbios_knl_Event_pendTimeout__I                          
007e5400  ti_sysbios_knl_Event_pend__E                                 
007ed620  ti_sysbios_knl_Event_post__E                                 
00819a38  ti_sysbios_knl_Idle_funcList__A                              
00819a50  ti_sysbios_knl_Idle_funcList__C                              
00805120  ti_sysbios_knl_Idle_loop__E                                  
00800c00  ti_sysbios_knl_Idle_run__E                                   
00805140  ti_sysbios_knl_Queue_Instance_init__E                        
0081b8f0  ti_sysbios_knl_Queue_Module__root__V                         
00819844  ti_sysbios_knl_Queue_Object__DESC__C                         
00819938  ti_sysbios_knl_Queue_Object__PARAMS__C                       
00805160  ti_sysbios_knl_Queue_Object__get__S                          
008028a0  ti_sysbios_knl_Queue_construct                               
00805180  ti_sysbios_knl_Queue_dequeue__E                              
008051a0  ti_sysbios_knl_Queue_destruct                                
008051c0  ti_sysbios_knl_Queue_empty__E                                
008051e0  ti_sysbios_knl_Queue_enqueue__E                              
00805200  ti_sysbios_knl_Queue_put__E                                  
00819b84  ti_sysbios_knl_Semaphore_A_badContext__C                     
00819b88  ti_sysbios_knl_Semaphore_A_noEvents__C                       
00819b8c  ti_sysbios_knl_Semaphore_A_overflow__C                       
00819b90  ti_sysbios_knl_Semaphore_A_pendTaskDisabled__C               
00819b94  ti_sysbios_knl_Semaphore_Instance_State_pendQ__O             
008040e0  ti_sysbios_knl_Semaphore_Instance_finalize__E                
007f89a0  ti_sysbios_knl_Semaphore_Instance_init__E                    
00819b98  ti_sysbios_knl_Semaphore_LM_pend__C                          
00819b9c  ti_sysbios_knl_Semaphore_LM_post__C                          
00819ba0  ti_sysbios_knl_Semaphore_Module__diagsEnabled__C             
00819ba4  ti_sysbios_knl_Semaphore_Module__diagsIncluded__C            
00819ba8  ti_sysbios_knl_Semaphore_Module__diagsMask__C                
00819d22  ti_sysbios_knl_Semaphore_Module__id__C                       
00819d24  ti_sysbios_knl_Semaphore_Module__loggerDefined__C            
00819bac  ti_sysbios_knl_Semaphore_Module__loggerFxn2__C               
00819bb0  ti_sysbios_knl_Semaphore_Module__loggerFxn4__C               
00819bb4  ti_sysbios_knl_Semaphore_Module__loggerObj__C                
0081b8f8  ti_sysbios_knl_Semaphore_Module__root__V                     
00819864  ti_sysbios_knl_Semaphore_Object__DESC__C                     
00819780  ti_sysbios_knl_Semaphore_Object__PARAMS__C                   
00802900  ti_sysbios_knl_Semaphore_Object__delete__S                   
00805220  ti_sysbios_knl_Semaphore_Params__init__S                     
00802960  ti_sysbios_knl_Semaphore_construct                           
00800c80  ti_sysbios_knl_Semaphore_create                              
00805240  ti_sysbios_knl_Semaphore_delete                              
00804120  ti_sysbios_knl_Semaphore_destruct                            
008029c0  ti_sysbios_knl_Semaphore_pendTimeout__I                      
007e4f00  ti_sysbios_knl_Semaphore_pend__E                             
007efe40  ti_sysbios_knl_Semaphore_post__E                             
00819bb8  ti_sysbios_knl_Task_A_badPriority__C                         
00819bbc  ti_sysbios_knl_Task_A_badTaskState__C                        
00819bc0  ti_sysbios_knl_Task_A_badThreadType__C                       
00819bc4  ti_sysbios_knl_Task_A_badTimeout__C                          
00819bc8  ti_sysbios_knl_Task_A_noPendElem__C                          
00819bcc  ti_sysbios_knl_Task_A_sleepTaskDisabled__C                   
00819bd0  ti_sysbios_knl_Task_E_spOutOfBounds__C                       
00819bd4  ti_sysbios_knl_Task_E_stackOverflow__C                       
0081b3a0  ti_sysbios_knl_Task_Instance_State_0_hookEnv__A              
0081ad88  ti_sysbios_knl_Task_Instance_State_0_stack__A                
007e7860  ti_sysbios_knl_Task_Instance_finalize__E                     
007e9b20  ti_sysbios_knl_Task_Instance_init__E                         
00819bd8  ti_sysbios_knl_Task_LD_block__C                              
00819bdc  ti_sysbios_knl_Task_LD_exit__C                               
00819be0  ti_sysbios_knl_Task_LD_ready__C                              
00819be4  ti_sysbios_knl_Task_LM_sleep__C                              
00819be8  ti_sysbios_knl_Task_LM_switch__C                             
0081c588  ti_sysbios_knl_Task_Module_State_0_idleTask__A               
0081c0a8  ti_sysbios_knl_Task_Module_State_0_readyQ__A                 
00819bec  ti_sysbios_knl_Task_Module_State_inactiveQ__O                
00819bf0  ti_sysbios_knl_Task_Module__diagsEnabled__C                  
00819bf4  ti_sysbios_knl_Task_Module__diagsIncluded__C                 
00819bf8  ti_sysbios_knl_Task_Module__diagsMask__C                     
00819d26  ti_sysbios_knl_Task_Module__id__C                            
00819d28  ti_sysbios_knl_Task_Module__loggerDefined__C                 
00819bfc  ti_sysbios_knl_Task_Module__loggerFxn2__C                    
00819c00  ti_sysbios_knl_Task_Module__loggerFxn4__C                    
00819c04  ti_sysbios_knl_Task_Module__loggerObj__C                     
0081b900  ti_sysbios_knl_Task_Module__root__V                          
0081b908  ti_sysbios_knl_Task_Module__state__V                         
007f7940  ti_sysbios_knl_Task_Module_startup__E                        
00819884  ti_sysbios_knl_Task_Object__DESC__C                          
008195b4  ti_sysbios_knl_Task_Object__PARAMS__C                        
00819c08  ti_sysbios_knl_Task_Object__count__C                         
00804160  ti_sysbios_knl_Task_Object__get__S                           
00819c0c  ti_sysbios_knl_Task_Object__heap__C                          
0081c2e0  ti_sysbios_knl_Task_Object__table__V                         
00805260  ti_sysbios_knl_Task_Params__init__S                          
00804e00  ti_sysbios_knl_Task_SupportProxy_Module__startupDone__S      
00804e20  ti_sysbios_knl_Task_SupportProxy_checkStack__E               
00804e40  ti_sysbios_knl_Task_SupportProxy_getStackAlignment__E        
008025a0  ti_sysbios_knl_Task_SupportProxy_start__E                    
00800300  ti_sysbios_knl_Task_SupportProxy_swap__E                     
00819c10  ti_sysbios_knl_Task_allBlockedFunc__C                        
007ff420  ti_sysbios_knl_Task_allBlockedFunction__I                    
007f7a80  ti_sysbios_knl_Task_blockI__E                                
007f5f80  ti_sysbios_knl_Task_checkStacks__E                           
007fd660  ti_sysbios_knl_Task_create                                   
00819c14  ti_sysbios_knl_Task_defaultStackHeap__C                      
00819c18  ti_sysbios_knl_Task_defaultStackSize__C                      
00805280  ti_sysbios_knl_Task_disable__E                               
008052a0  ti_sysbios_knl_Task_enabled__E                               
00802a20  ti_sysbios_knl_Task_enter__I                                 
007f4660  ti_sysbios_knl_Task_exit__E                                  
00802a80  ti_sysbios_knl_Task_getMode__E                               
00819950  ti_sysbios_knl_Task_hooks__A                                 
00819a58  ti_sysbios_knl_Task_hooks__C                                 
00819c1c  ti_sysbios_knl_Task_numConstructedTasks__C                   
007f1320  ti_sysbios_knl_Task_postInit__I                              
00800d00  ti_sysbios_knl_Task_processVitalTaskFlag__I                  
00802ae0  ti_sysbios_knl_Task_restoreHwi__E                            
00802b40  ti_sysbios_knl_Task_restore__E                               
007ef000  ti_sysbios_knl_Task_schedule__I                              
008041a0  ti_sysbios_knl_Task_sleepTimeout__I                          
007eafa0  ti_sysbios_knl_Task_sleep__E                                 
007f1500  ti_sysbios_knl_Task_startCore__E                             
008052c0  ti_sysbios_knl_Task_startup__E                               
007f47e0  ti_sysbios_knl_Task_unblockI__E                              
008041e0  ti_sysbios_knl_Task_unblock__E                               
0081b94c  ti_sysbios_rts_ti_ThreadLocalStorage_Module__state__V        
00819c20  ti_sysbios_timers_rti_Timer_E_cannotSupport__C               
0081c538  ti_sysbios_timers_rti_Timer_Module_State_0_device__A         
0081c578  ti_sysbios_timers_rti_Timer_Module_State_0_handles__A        
0081c550  ti_sysbios_timers_rti_Timer_Module_State_0_intFreqs__A       
00819c24  ti_sysbios_timers_rti_Timer_Module__diagsEnabled__C          
00819c28  ti_sysbios_timers_rti_Timer_Module__diagsIncluded__C         
00819c2c  ti_sysbios_timers_rti_Timer_Module__diagsMask__C             
00819d2a  ti_sysbios_timers_rti_Timer_Module__id__C                    
0081b958  ti_sysbios_timers_rti_Timer_Module__root__V                  
008052e0  ti_sysbios_timers_rti_Timer_Module__startupDone__F           
008052e0  ti_sysbios_timers_rti_Timer_Module__startupDone__S           
0081b960  ti_sysbios_timers_rti_Timer_Module__state__V                 
007f7bc0  ti_sysbios_timers_rti_Timer_Module_startup__E                
0081c3b0  ti_sysbios_timers_rti_Timer_Object__table__V                 
00804220  ti_sysbios_timers_rti_Timer_ackInterrupt__E                  
00804260  ti_sysbios_timers_rti_Timer_checkOverflow__I                 
00819d2c  ti_sysbios_timers_rti_Timer_continueOnSuspend__C             
007f2880  ti_sysbios_timers_rti_Timer_getFreq__E                       
00805300  ti_sysbios_timers_rti_Timer_getMaxTicks__E                   
007fa3c0  ti_sysbios_timers_rti_Timer_initDevice__I                    
00819c30  ti_sysbios_timers_rti_Timer_numTimerDevices__C               
00805320  ti_sysbios_timers_rti_Timer_periodicStub__E                  
007f60e0  ti_sysbios_timers_rti_Timer_postInit__I                      
007ff4c0  ti_sysbios_timers_rti_Timer_setPeriodMicroSecs__E            
00800d80  ti_sysbios_timers_rti_Timer_setPeriod__E                     
007fa4c0  ti_sysbios_timers_rti_Timer_start__E                         
00819c34  ti_sysbios_timers_rti_Timer_startupNeeded__C                 
007fd720  ti_sysbios_timers_rti_Timer_startup__E                       
00800e00  ti_sysbios_timers_rti_Timer_stop__E                          
00819c38  ti_sysbios_utils_Load_LS_cpuLoad__C                          
00819c3c  ti_sysbios_utils_Load_LS_taskLoad__C                         
0081c590  ti_sysbios_utils_Load_Module_State_0_runningTask__A          
0081c458  ti_sysbios_utils_Load_Module_State_0_taskEnv__A              
0081c598  ti_sysbios_utils_Load_Module_State_0_taskStartTime__A        
00819c40  ti_sysbios_utils_Load_Module_State_taskList__O               
00819c44  ti_sysbios_utils_Load_Module__diagsEnabled__C                
00819c48  ti_sysbios_utils_Load_Module__diagsIncluded__C               
00819c4c  ti_sysbios_utils_Load_Module__diagsMask__C                   
00819d2e  ti_sysbios_utils_Load_Module__id__C                          
00819d30  ti_sysbios_utils_Load_Module__loggerDefined__C               
00819c50  ti_sysbios_utils_Load_Module__loggerFxn1__C                  
00819c54  ti_sysbios_utils_Load_Module__loggerFxn4__C                  
00819c58  ti_sysbios_utils_Load_Module__loggerObj__C                   
0081b970  ti_sysbios_utils_Load_Module__state__V                       
007ff560  ti_sysbios_utils_Load_addTask__E                             
00819d32  ti_sysbios_utils_Load_autoAddTasks__C                        
00805340  ti_sysbios_utils_Load_getCPULoad__E                          
008042a0  ti_sysbios_utils_Load_getTaskLoad__E                         
007f6240  ti_sysbios_utils_Load_idleFxn__E                             
007fd7e0  ti_sysbios_utils_Load_logCPULoad__I                          
007f63a0  ti_sysbios_utils_Load_logLoads__I                            
00819c5c  ti_sysbios_utils_Load_postUpdate__C                          
00800e80  ti_sysbios_utils_Load_removeTask__E                          
007f4960  ti_sysbios_utils_Load_startup__E                             
007fd8a0  ti_sysbios_utils_Load_taskCreateHook__E                      
007ff600  ti_sysbios_utils_Load_taskDeleteHook__E                      
00805360  ti_sysbios_utils_Load_taskRegHook__E                         
007fd960  ti_sysbios_utils_Load_taskSwitchHook__E                      
007fc140  ti_sysbios_utils_Load_updateCurrentThreadTime__E             
00819d34  ti_sysbios_utils_Load_updateInIdle__C                        
007f6500  ti_sysbios_utils_Load_updateLoads__E                         
007ef220  ti_sysbios_utils_Load_updateThreadContexts__E                
007f6500  ti_sysbios_utils_Load_update__E                              
00819c60  ti_sysbios_utils_Load_windowInMs__C                          
00817e08  twiddleTableCommon                                           
00800f00  unlink                                                       
00802c00  write                                                        
00819c64  xdc_runtime_Assert_E_assertFailed__C                         
007fdae0  xdc_runtime_Assert_raise__I                                  
00819c68  xdc_runtime_Core_A_initializedParams__C                      
00819c6c  xdc_runtime_Core_Module__diagsEnabled__C                     
00819c70  xdc_runtime_Core_Module__diagsIncluded__C                    
00819c74  xdc_runtime_Core_Module__diagsMask__C                        
00819d36  xdc_runtime_Core_Module__id__C                               
00800f80  xdc_runtime_Core_assignLabel__I                              
007ff6a0  xdc_runtime_Core_assignParams__I                             
007f3740  xdc_runtime_Core_constructObject__I                          
007ed860  xdc_runtime_Core_createObject__I                             
007f7d00  xdc_runtime_Core_deleteObject__I                             
00819c78  xdc_runtime_Error_E_memory__C                                
0081b3a8  xdc_runtime_Error_IgnoreBlock                                
00819c7c  xdc_runtime_Error_Module__diagsEnabled__C                    
00819c80  xdc_runtime_Error_Module__diagsIncluded__C                   
00819c84  xdc_runtime_Error_Module__diagsMask__C                       
00819d38  xdc_runtime_Error_Module__loggerDefined__C                   
00819c88  xdc_runtime_Error_Module__loggerFxn8__C                      
00819c8c  xdc_runtime_Error_Module__loggerObj__C                       
0081ba08  xdc_runtime_Error_Module__state__V                           
008042e0  xdc_runtime_Error_check__E                                   
00805380  xdc_runtime_Error_getSite__E                                 
00804320  xdc_runtime_Error_init__E                                    
00819d3a  xdc_runtime_Error_maxDepth__C                                
007f0040  xdc_runtime_Error_policyDefault__E                           
00819c90  xdc_runtime_Error_policyFxn__C                               
00819c94  xdc_runtime_Error_policy__C                                  
007fa5c0  xdc_runtime_Error_print__E                                   
00819c98  xdc_runtime_Error_raiseHook__C                               
008053a0  xdc_runtime_Error_raiseX__E                                  
007fdba0  xdc_runtime_Error_setX__E                                    
008053c0  xdc_runtime_Gate_enterSystem__E                              
008053e0  xdc_runtime_Gate_leaveSystem__E                              
00819c9c  xdc_runtime_IGateProvider_Interface__BASE__C                 
00819ca0  xdc_runtime_IHeap_Interface__BASE__C                         
00819ca4  xdc_runtime_IModule_Interface__BASE__C                       
00819ca8  xdc_runtime_Log_L_error__C                                   
00803de0  xdc_runtime_Main_Module_GateProxy_Handle__label__S           
00804fe0  xdc_runtime_Main_Module_GateProxy_query__E                   
00819cac  xdc_runtime_Main_Module__diagsEnabled__C                     
00819cb0  xdc_runtime_Main_Module__diagsIncluded__C                    
00819cb4  xdc_runtime_Main_Module__diagsMask__C                        
00819d3c  xdc_runtime_Main_Module__id__C                               
00819d3e  xdc_runtime_Main_Module__loggerDefined__C                    
00819cb8  xdc_runtime_Main_Module__loggerFxn1__C                       
00819cbc  xdc_runtime_Main_Module__loggerFxn2__C                       
00819cc0  xdc_runtime_Main_Module__loggerFxn4__C                       
00819cc4  xdc_runtime_Main_Module__loggerObj__C                        
00803f60  xdc_runtime_Memory_HeapProxy_Handle__label__S                
00805400  xdc_runtime_Memory_HeapProxy_alloc__E                        
00805420  xdc_runtime_Memory_HeapProxy_free__E                         
00819d40  xdc_runtime_Memory_Module__id__C                             
0081ba0c  xdc_runtime_Memory_Module__state__V                          
007fa6c0  xdc_runtime_Memory_alloc__E                                  
00805440  xdc_runtime_Memory_calloc__E                                 
00819cc8  xdc_runtime_Memory_defaultHeapInstance__C                    
00805460  xdc_runtime_Memory_free__E                                   
00805480  xdc_runtime_Memory_getMaxDefaultTypeAlign__E                 
00802c60  xdc_runtime_Memory_valloc__E                                 
0081ba10  xdc_runtime_Registry_Module__state__V                        
00804360  xdc_runtime_Registry_findById__E                             
0081ba18  xdc_runtime_Startup_Module__state__V                         
00000001  xdc_runtime_Startup__EXECFXN__C                              
00000001  xdc_runtime_Startup__RESETFXN__C                             
00819ccc  xdc_runtime_Startup_execImpl__C                              
007fa7c0  xdc_runtime_Startup_exec__E                                  
008054a0  xdc_runtime_Startup_exec__I                                  
00819a60  xdc_runtime_Startup_firstFxns__A                             
00819a68  xdc_runtime_Startup_firstFxns__C                             
00819a70  xdc_runtime_Startup_lastFxns__C                              
00819cd0  xdc_runtime_Startup_maxPasses__C                             
008054c0  xdc_runtime_Startup_reset__I                                 
008054e0  xdc_runtime_Startup_rtsDone__E                               
008199b8  xdc_runtime_Startup_sfxnRts__A                               
00819cd4  xdc_runtime_Startup_sfxnRts__C                               
008196c8  xdc_runtime_Startup_sfxnTab__A                               
00819cd8  xdc_runtime_Startup_sfxnTab__C                               
007ec640  xdc_runtime_Startup_startMods__I                             
00801000  xdc_runtime_SysStd_abort__E                                  
00805500  xdc_runtime_SysStd_exit__E                                   
00805520  xdc_runtime_SysStd_putch__E                                  
00805540  xdc_runtime_SysStd_ready__E                                  
00803de0  xdc_runtime_System_Module_GateProxy_Handle__label__S         
00805560  xdc_runtime_System_Module_GateProxy_enter__E                 
00805580  xdc_runtime_System_Module_GateProxy_leave__E                 
00804fe0  xdc_runtime_System_Module_GateProxy_query__E                 
00819cdc  xdc_runtime_System_Module__gateObj__C                        
0081ba20  xdc_runtime_System_Module__state__V                          
008055a0  xdc_runtime_System_Module_startup__E                         
00801000  xdc_runtime_System_SupportProxy_abort__E                     
00805500  xdc_runtime_System_SupportProxy_exit__E                      
00805520  xdc_runtime_System_SupportProxy_putch__E                     
00805540  xdc_runtime_System_SupportProxy_ready__E                     
00819ce0  xdc_runtime_System_abortFxn__C                               
00804c40  xdc_runtime_System_abortStd__E                               
008043a0  xdc_runtime_System_abort__E                                  
008043e0  xdc_runtime_System_aprintf__E                                
00801100  xdc_runtime_System_aprintf_va__E                             
00801100  xdc_runtime_System_aprintf_va__F                             
00801080  xdc_runtime_System_atexit__E                                 
00801100  xdc_runtime_System_avprintf__E                               
007e0dc0  xdc_runtime_System_doPrint__I                                
00819ce4  xdc_runtime_System_exitFxn__C                                
007fd1e0  xdc_runtime_System_exitStd__E                                
00804420  xdc_runtime_System_exit__E                                   
00819ce8  xdc_runtime_System_extendFxn__C                              
007ff740  xdc_runtime_System_formatNum__I                              
00819cec  xdc_runtime_System_maxAtexitHandlers__C                      
007edaa0  xdc_runtime_System_printfExtend__I                           
00804460  xdc_runtime_System_printf__E                                 
00801200  xdc_runtime_System_printf_va__E                              
00801200  xdc_runtime_System_printf_va__F                              
00801180  xdc_runtime_System_processAtExit__E                          
007ff7e0  xdc_runtime_System_putchar__I                                
008055c0  xdc_runtime_System_snprintf_va__E                            
008055c0  xdc_runtime_System_snprintf_va__F                            
00801200  xdc_runtime_System_vprintf__E                                
008055c0  xdc_runtime_System_vsnprintf__E                              
0081ba28  xdc_runtime_Text_Module__state__V                            
00819d42  xdc_runtime_Text_charCnt__C                                  
00819d50  xdc_runtime_Text_charTab__A                                  
00819cf0  xdc_runtime_Text_charTab__C                                  
00802cc0  xdc_runtime_Text_cordText__E                                 
00819d44  xdc_runtime_Text_isLoaded__C                                 
00819cf4  xdc_runtime_Text_nameEmpty__C                                
00819cf8  xdc_runtime_Text_nameStatic__C                               
00819cfc  xdc_runtime_Text_nameUnknown__C                              
00819d00  xdc_runtime_Text_nodeTab__A                                  
007ff880  xdc_runtime_Text_printVisFxn__I                              
007f7e40  xdc_runtime_Text_putLab__E                                   
007f6660  xdc_runtime_Text_putMod__E                                   
007f16e0  xdc_runtime_Text_putSite__E                                  
00819d46  xdc_runtime_Text_registryModsLastId__C                       
008055e0  xdc_runtime_Text_ropeText__E                                 
00819d48  xdc_runtime_Text_unnamedModsLastId__C                        
00819d04  xdc_runtime_Text_visitRopeFxn__C                             
00805600  xdc_runtime_Text_visitRope__I                                
007ff920  xdc_runtime_Text_xprintf__I                                  
00804f60  xdc_runtime_Timestamp_SupportProxy_get32__E                  
00804d60  xdc_runtime_Timestamp_SupportProxy_getFreq__E                


GLOBAL SYMBOLS: SORTED BY Symbol Address 

address   name                                                         
-------   ----                                                         
00000000  __ASM__                                                      
00000000  ti_sysbios_family_c64p_Cache_l2Size                          
00000001  xdc_runtime_Startup__EXECFXN__C                              
00000001  xdc_runtime_Startup__RESETFXN__C                             
00000080  __ISA__                                                      
00000098  __PLAT__                                                     
000000b8  __TARG__                                                     
000000e0  __TRDR__                                                     
00000700  __TI_STACK_SIZE                                              
00004000  ti_sysbios_family_c64p_Cache_l1dSize                         
00004000  ti_sysbios_family_c64p_Cache_l1pSize                         
000c0000  _L3data_size                                                 
007e0000  ti_sysbios_family_c64p_Hwi0                                  
007e0000  ti_sysbios_family_c64p_Hwi_int0                              
007e0020  ti_sysbios_family_c64p_Hwi_int1                              
007e0040  ti_sysbios_family_c64p_Hwi_int2                              
007e0060  ti_sysbios_family_c64p_Hwi_int3                              
007e0080  ti_sysbios_family_c64p_Hwi_int4                              
007e00a0  ti_sysbios_family_c64p_Hwi_int5                              
007e00c0  ti_sysbios_family_c64p_Hwi_int6                              
007e00e0  ti_sysbios_family_c64p_Hwi_int7                              
007e0100  ti_sysbios_family_c64p_Hwi_int8                              
007e0120  ti_sysbios_family_c64p_Hwi_int9                              
007e0140  ti_sysbios_family_c64p_Hwi_int10                             
007e0160  ti_sysbios_family_c64p_Hwi_int11                             
007e0180  ti_sysbios_family_c64p_Hwi_int12                             
007e01a0  ti_sysbios_family_c64p_Hwi_int13                             
007e01c0  ti_sysbios_family_c64p_Hwi_int14                             
007e01e0  ti_sysbios_family_c64p_Hwi_int15                             
007e0200  MmwDemo_parseProfileAndChirpConfig                           
007e0dc0  xdc_runtime_System_doPrint__I                                
007e1e20  ti_sysbios_family_c64p_Exception_handler__I                  
007e2520  __c6xabi_divd                                                
007e2ae0  MmwDemo_dataPathConfigEdma                                   
007e3080  MmwDemo_cfarPeakGroupingCfarQualified                        
007e3b00  CBUFF_init                                                   
007e4000  HSIHeader_createHeader                                       
007e4500  MmwDemo_dataPathConfigBuffers                                
007e4a00  MmwDemo_rangeBiasRxChPhaseMeasure                            
007e4f00  ti_sysbios_knl_Semaphore_pend__E                             
007e5400  ti_sysbios_knl_Event_pend__E                                 
007e58e0  CBUFF_createSession                                          
007e5da0  ti_sysbios_heaps_HeapMem_allocUnprotected__E                 
007e6260  MMWave_deviceExecuteFxn                                      
007e6b80  MmwDemo_gen_twiddle_fft16x16_fast                            
007e6fe0  ti_sysbios_heaps_HeapMem_freeUnprotected__E                  
007e7440  Mailbox_open                                                 
007e7860  ti_sysbios_knl_Task_Instance_finalize__E                     
007e7c80  rlDriverRxHdrRead                                            
007e8060  ADCBUF_MMWave_control                                        
007e8400  MmwDemo_dcRangeSignatureCompensation                         
007e8b00  CRC_open                                                     
007e8e60  CBUFF_openLVDS                                               
007e94e0  CBUFF_initLVDS                                               
007e9800  MmwDemo_nearFieldCorrection                                  
007e9b20  ti_sysbios_knl_Task_Instance_init__E                         
007e9e40  CBUFF_activateSession                                        
007ea440  CBUFF_configEDMA                                             
007eaa00  rlDriverCmdInvoke                                            
007eace0  MmwDemo_genWindow                                            
007eafa0  ti_sysbios_knl_Task_sleep__E                                 
007eb260  CRC_computeSignature                                         
007eb500  MmwDemo_dssDataPathInit                                      
007eb7a0  __c6xabi_divf                                                
007eba40  EDMA_configChannel                                           
007ebcc0  EDMA_open                                                    
007ebf20  __c6xabi_divull                                              
007ec180  rlDriverMsgRead                                              
007ec3e0  ti_sysbios_knl_Clock_workFunc__E                             
007ec640  xdc_runtime_Startup_startMods__I                             
007ec8a0  EDMA_configErrorMonitoring                                   
007ecae0  MMWave_startLink                                             
007ecf60  rlDriverCmdSendRetry                                         
007ed1a0  rlDriverInit                                                 
007ed3e0  setvbuf                                                      
007ed620  ti_sysbios_knl_Event_post__E                                 
007ed860  xdc_runtime_Core_createObject__I                             
007edaa0  xdc_runtime_System_printfExtend__I                           
007edce0  CBUFF_deinit                                                 
007edf00  CBUFF_setupNonInterleaved_ADC                                
007ee340  Mailbox_write                                                
007ee560  MmwDemo_EDMA_CQTransferCompletionCallbackFxn                 
007ee780  MmwDemo_parseAdcBufCfg                                       
007ee9a0  fputc                                                        
007ee9a0  putc                                                         
007eebc0  ti_sysbios_family_c64p_Hwi_dispatchCore__I                   
007eede0  ti_sysbios_heaps_HeapMem_Instance_init__E                    
007ef000  ti_sysbios_knl_Task_schedule__I                              
007ef220  ti_sysbios_utils_Load_updateThreadContexts__E                
007ef440  CBUFF_setupNonInterleaved_MultiChirp_CP_ADC_CQ_USER          
007ef840  MmwDemo_LVDSStreamHwConfig                                   
007efa40  MmwDemo_processChirp                                         
007efc40  ti_sysbios_family_c64p_Hwi_dispatchAlways                    
007efe40  ti_sysbios_knl_Semaphore_post__E                             
007f0040  xdc_runtime_Error_policyDefault__E                           
007f0240  ADCBUF_MMWave_open                                           
007f0420  CBUFF_setupNonInterleaved_MultiChirp_CP_ADC                  
007f0600  CBUFF_setupNonInterleaved_MultiChirp_CP_ADC_CQ               
007f07e0  CBUFF_setupTransfer                                          
007f09c0  EDMA_init                                                    
007f0ba0  HSIHeader_init                                               
007f0d80  MmwDemo_gen_twiddle_fft32x32_fast                            
007f0f60  log                                                          
007f0f60  logl                                                         
007f1140  rlDriverRdVerifyMsg                                          
007f1320  ti_sysbios_knl_Task_postInit__I                              
007f1500  ti_sysbios_knl_Task_startCore__E                             
007f16e0  xdc_runtime_Text_putSite__E                                  
007f18c0  CBUFF_setupNonInterleaved_MultiChirp_ADC_CP                  
007f1a80  MMWave_deviceInitFxn                                         
007f1c40  Mailbox_read                                                 
007f1e00  MmwDemo_XYcalc                                               
007f2340  MmwDemo_genDftSinCosTable                                    
007f2500  SOC_deregisterSysIntListener                                 
007f26c0  frexp                                                        
007f26c0  frexpl                                                       
007f2880  ti_sysbios_timers_rti_Timer_getFreq__E                       
007f2d80  EDMAutil_configType2b                                        
007f2f20  HOSTrename                                                   
007f30c0  MmwDemo_dataPathConfigFFTs                                   
007f3400  rlDriverDeInit                                               
007f35a0  ti_sysbios_family_c64p_EventCombiner_dispatch__E             
007f3740  xdc_runtime_Core_constructObject__I                          
007f3a60  CBUFF_setupNonInterleaved_CP_ADC                             
007f3be0  CBUFF_setupNonInterleaved_CP_ADC_CQ_USER                     
007f3d60  MMWave_flushCfg                                              
007f3ee0  MMWave_getChirpHandle                                        
007f4060  MMWave_start                                                 
007f41e0  rlDriverMsgWrite                                             
007f4360  ti_sysbios_family_c64p_Exception_dispatch__E                 
007f44e0  ti_sysbios_family_c64p_Exception_internalHandler__I          
007f4660  ti_sysbios_knl_Task_exit__E                                  
007f47e0  ti_sysbios_knl_Task_unblockI__E                              
007f4960  ti_sysbios_utils_Load_startup__E                             
007f4ae0  CBUFF_setupNonInterleaved_ADC_CP                             
007f4c40  CBUFF_setupNonInterleaved_CP_ADC_CQ                          
007f4da0  EDMAutil_configType1                                         
007f4f00  EDMAutil_configType3                                         
007f5320  Mailbox_close                                                
007f5480  MmwDemo_LVDSStreamSwConfig                                   
007f55e0  MmwDemo_dssDataPathOutputLogging                             
007f58a0  MmwDemo_quadFit                                              
007f5a00  SOC_registerSysIntListener                                   
007f5b60  rlDriverMsgReadCmdCtx                                        
007f5cc0  rlDriverWaitForResponse                                      
007f5e20  sqrt                                                         
007f5e20  sqrtl                                                        
007f5f80  ti_sysbios_knl_Task_checkStacks__E                           
007f60e0  ti_sysbios_timers_rti_Timer_postInit__I                      
007f6240  ti_sysbios_utils_Load_idleFxn__E                             
007f63a0  ti_sysbios_utils_Load_logLoads__I                            
007f6500  ti_sysbios_utils_Load_updateLoads__E                         
007f6500  ti_sysbios_utils_Load_update__E                              
007f6660  xdc_runtime_Text_putMod__E                                   
007f6900  CBUFF_deactivateSession                                      
007f6b80  EDMA3Init                                                    
007f6e00  MMWave_addChirp                                              
007f6f40  MMWave_init                                                  
007f7080  MmwDemo_checkDynamicConfigErrors                             
007f7300  __TI_closefile                                               
007f7440  fflush                                                       
007f7580  rlDevicePowerOn                                              
007f76c0  rlDriverMsgCmdReply                                          
007f7800  ti_sysbios_gates_GateMutex_enter__E                          
007f7940  ti_sysbios_knl_Task_Module_startup__E                        
007f7a80  ti_sysbios_knl_Task_blockI__E                                
007f7bc0  ti_sysbios_timers_rti_Timer_Module_startup__E                
007f7d00  xdc_runtime_Core_deleteObject__I                             
007f7e40  xdc_runtime_Text_putLab__E                                   
007f7f80  ADCBUF_MMWave_getChanBufAddr                                 
007f80a0  CBUFF_setupNonInterleaved_ADC_USER                           
007f8400  MmwDemo_dataPathConfigCQEdma                                 
007f8520  _auto_init_elf                                               
007f8640  fseek                                                        
007f8760  rlDriverAsyncEventHandler                                    
007f8880  ti_sysbios_family_c64p_EventCombiner_dispatchPlug__E         
007f89a0  ti_sysbios_knl_Semaphore_Instance_init__E                    
007f8bc0  CBUFF_closeEDMA                                              
007f8fc0  HOSTlseek                                                    
007f90c0  HSIHeader_deleteHeader                                       
007f91c0  MMWave_addBpmChirp                                           
007f92c0  MMWave_addProfile                                            
007f93c0  MMWave_getChirpCfg                                           
007f94c0  Mailbox_readFlush                                            
007f95c0  MmwDemo_LVDSStreamDeleteHwSession                            
007f96c0  MmwDemo_LVDSStreamDeleteSwSession                            
007f97c0  MmwDemo_LVDSStreamInit                                       
007f9ac0  MmwDemo_LVDSStream_EDMAInit                                  
007f9bc0  MmwDemo_getDopplerLine                                       
007f9cc0  SOC_deviceInit                                               
007f9dc0  SOC_translateAddress                                         
007f9ec0  __TI_wrt_ok                                                  
007f9fc0  rlDevicePowerOff                                             
007fa2c0  rlDriverValidateHdr                                          
007fa3c0  ti_sysbios_timers_rti_Timer_initDevice__I                    
007fa4c0  ti_sysbios_timers_rti_Timer_start__E                         
007fa5c0  xdc_runtime_Error_print__E                                   
007fa6c0  xdc_runtime_Memory_alloc__E                                  
007fa7c0  xdc_runtime_Startup_exec__E                                  
007fa9a0  ADCBUF_MMWave_getCQBufAddr                                   
007fab60  CBUFF_initLVDSLinkListParams                                 
007fac40  CRC_getTransactionId                                         
007fad20  DebugP_log3                                                  
007fae00  EDMA_configParamSet                                          
007faee0  EDMA_isTransferComplete                                      
007fb0a0  EDMAutil_triggerType3                                        
007fb180  HOSTopen                                                     
007fb260  HOSTwrite                                                    
007fb340  MMWave_deviceStartFxn                                        
007fb420  MMWave_getProfileCfg                                         
007fb5e0  Mailbox_init                                                 
007fb7a0  MmwDemo_log2AbsAccum                                         
007fb880  __c6xabi_divi                                                
007fb880  __divi                                                       
007fb960  close                                                        
007fba40  memset                                                       
007fbb20  rlDeviceGetVersion                                           
007fbc00  rlDriverCalChkSum                                            
007fbce0  rlDriverHostIrqHandler                                       
007fbdc0  rlDriverMsgReadSpawnCtx                                      
007fbea0  rlDriverProcRdMsg                                            
007fbf80  ti_sysbios_family_c64p_Cache_Module_startup__E               
007fc060  ti_sysbios_family_c64p_Cache_getL2InitSize__I                
007fc140  ti_sysbios_utils_Load_updateCurrentThreadTime__E             
007fc220  CBUFF_deleteSession                                          
007fc2e0  CRC_getSignature                                             
007fc3a0  DebugP_log0                                                  
007fc460  DebugP_log1                                                  
007fc520  DebugP_log2                                                  
007fc5e0  EDMA_startDmaTransfer                                        
007fc6a0  HOSTread                                                     
007fc760  HOSTunlink                                                   
007fc820  MMWave_deviceEventFxn                                        
007fc8e0  MMWave_getNumChirps                                          
007fcca0  MmwDemo_decodeBPM                                            
007fce20  SOC_enableLVDS                                               
007fcee0  _MmwDemo_dssAssert                                           
007fcfa0  __TI_doflush                                                 
007fd060  __c6xabi_divu                                                
007fd060  __divu                                                       
007fd120  __c6xabi_remi                                                
007fd120  __remi                                                       
007fd1e0  exit                                                         
007fd1e0  xdc_runtime_System_exitStd__E                                
007fd2a0  rlDriverExecuteGetApi                                        
007fd360  ti_sysbios_family_c64p_Cache_getL1DInitSize__I               
007fd420  ti_sysbios_family_c64p_Cache_getL1PInitSize__I               
007fd4e0  ti_sysbios_heaps_HeapMem_getStats__E                         
007fd5a0  ti_sysbios_knl_Clock_logTick__E                              
007fd660  ti_sysbios_knl_Task_create                                   
007fd720  ti_sysbios_knl_Clock_TimerProxy_startup__E                   
007fd720  ti_sysbios_timers_rti_Timer_startup__E                       
007fd7e0  ti_sysbios_utils_Load_logCPULoad__I                          
007fd8a0  ti_sysbios_utils_Load_taskCreateHook__E                      
007fd960  ti_sysbios_utils_Load_taskSwitchHook__E                      
007fda20  __TI_tls_init                                                
007fdae0  xdc_runtime_Assert_raise__I                                  
007fdba0  xdc_runtime_Error_setX__E                                    
007fdda0  CBUFF_setVC                                                  
007fde40  CBUFF_shutdownTransfer                                       
007fdee0  EDMA3EnableChInShadowReg                                     
007fdf80  EDMA_disableChannel                                          
007fe020  HOSTclose                                                    
007fe0c0  MMWave_execute                                               
007fe160  MMWave_executeLink                                           
007fe200  MMWave_initLink                                              
007fe340  MMWave_sync                                                  
007fe520  MmwDemo_Yestimation                                          
007fe5c0  MmwDemo_addDopplerCompensation                               
007fe660  MmwDemo_dataPathWait1DInputData                              
007fe700  MmwDemo_dataPathWait1DOutputData                             
007fe7a0  MmwDemo_dataPathWait2DInputData                              
007fe840  MmwDemo_dataPathWait3DInputData                              
007fe8e0  MmwDemo_dataPathWaitTransDetMatrix2                          
007fe980  MmwDemo_dataPathWaitTransDetMatrix                           
007feac0  SOC_SystemISR                                                
007feb60  SOC_triggerDSStoMSSsoftwareInterrupt                         
007fec00  __TI_cleanup                                                 
007feca0  __c6xabi_fixfu                                               
007fed40  __c6xabi_remu                                                
007fed40  __remu                                                       
007fede0  _c_int00                                                     
007fee80  memcpy                                                       
007fef20  modf                                                         
007fef20  modfl                                                        
007fefc0  rlAppendSubBlock                                             
007ff060  rlDriverExecuteSetApi                                        
007ff100  rlDriverVerifyCRC                                            
007ff1a0  rlGetSubBlock                                                
007ff240  ti_sysbios_family_c64p_Hwi_Module_startup__E                 
007ff2e0  ti_sysbios_family_c64p_Hwi_getStackInfo__E                   
007ff2e0  ti_sysbios_hal_Hwi_HwiProxy_getStackInfo__E                  
007ff380  ti_sysbios_heaps_HeapMem_alloc__E                            
007ff420  ti_sysbios_knl_Task_allBlockedFunction__I                    
007ff4c0  ti_sysbios_timers_rti_Timer_setPeriodMicroSecs__E            
007ff560  ti_sysbios_utils_Load_addTask__E                             
007ff600  ti_sysbios_utils_Load_taskDeleteHook__E                      
007ff6a0  xdc_runtime_Core_assignParams__I                             
007ff740  xdc_runtime_System_formatNum__I                              
007ff7e0  xdc_runtime_System_putchar__I                                
007ff880  xdc_runtime_Text_printVisFxn__I                              
007ff920  xdc_runtime_Text_xprintf__I                                  
007ff9c0  ADCBuf_init                                                  
007ffa40  CBUFF_closeLVDS                                              
007ffb40  CBUFF_setup_USER                                             
007ffbc0  EDMA3MapChToEvtQ                                             
007ffc40  EDMA_chainChannels                                           
007ffcc0  EDMA_linkParamSets                                           
007ffe40  Mailbox_writeReset                                           
007fff40  ADCBUF_MMWave_init                                           
00800000  MmwDemo_dataPathComputeDerivedConfig                         
00800080  SemaphoreP_create                                            
00800100  __TI_readmsg                                                 
00800180  __TI_writemsg                                                
008001e0  C$$IO$$                                                      
00800200  __c6xabi_fixdu                                               
00800280  __c6xabi_llshl                                               
00800300  ti_sysbios_family_c62_TaskSupport_swap__E                    
00800300  ti_sysbios_knl_Task_SupportProxy_swap__E                     
00800380  mmwDemo_cfgAnalogMonitor                                     
00800400  rlDeviceIdentifyCmdDir                                       
00800480  rlDriverOsiInit                                              
00800500  ti_sysbios_BIOS_atExitFunc__I                                
00800580  ti_sysbios_BIOS_registerRTSLock__I                           
00800600  ti_sysbios_family_c64p_Cache_marInit__I                      
00800680  ti_sysbios_family_c64p_Exception_Module_startup__E           
00800700  ti_sysbios_family_c64p_Hwi_eventMap__E                       
00800780  ti_sysbios_gates_GateHwi_Object__create__S                   
00800800  ti_sysbios_gates_GateMutex_Object__create__S                 
00800880  ti_sysbios_hal_Hwi_checkStack                                
00800900  ti_sysbios_hal_Hwi_initStack                                 
00800980  ti_sysbios_heaps_HeapMem_Object__create__S                   
00800a00  ti_sysbios_heaps_HeapMem_free__E                             
00800a80  ti_sysbios_heaps_HeapMem_init__I                             
00800b00  ti_sysbios_knl_Clock_doTick__I                               
00800b80  ti_sysbios_knl_Event_create                                  
00800c00  ti_sysbios_knl_Idle_run__E                                   
00800c80  ti_sysbios_knl_Semaphore_create                              
00800d00  ti_sysbios_knl_Task_processVitalTaskFlag__I                  
00800d80  ti_sysbios_timers_rti_Timer_setPeriod__E                     
00800e00  ti_sysbios_timers_rti_Timer_stop__E                          
00800e80  ti_sysbios_utils_Load_removeTask__E                          
00800f00  remove                                                       
00800f00  unlink                                                       
00800f80  xdc_runtime_Core_assignLabel__I                              
00801000  xdc_runtime_SysStd_abort__E                                  
00801000  xdc_runtime_System_SupportProxy_abort__E                     
00801080  xdc_runtime_System_atexit__E                                 
00801100  xdc_runtime_System_aprintf_va__E                             
00801100  xdc_runtime_System_aprintf_va__F                             
00801100  xdc_runtime_System_avprintf__E                               
00801180  xdc_runtime_System_processAtExit__E                          
00801200  xdc_runtime_System_printf_va__E                              
00801200  xdc_runtime_System_printf_va__F                              
00801200  xdc_runtime_System_vprintf__E                                
00801280  ADCBUF_MMWave_close                                          
008012e0  ADCBuf_open                                                  
00801520  EDMA3ClrEvt                                                  
00801580  EDMA3ClrIntr                                                 
008015e0  EDMA3ClrMissEvt                                              
00801640  EDMA3DisableEvtIntr                                          
008016a0  EDMA3EnableDmaEvt                                            
00801700  EDMA3EnableEvtIntr                                           
00801760  EDMA3SetEvt                                                  
00801820  EDMA_setDestinationAddress                                   
00801880  EDMA_setSourceAddress                                        
008019a0  MMWave_listCat                                               
00801a00  MMWave_listRemoveNode                                        
00801a60  MMWave_osalMutexCreate                                       
00801ac0  MMWave_osalSemCreate                                         
00801b20  Mailbox_Config_init                                          
00801b80  MmwDemo_dataPathObjInit                                      
00801be0  MmwDemo_dssDataPathStartCQEdma                               
00801d60  MmwDemo_waitEndOfChirps                                      
00801dc0  SOC_setMMWaveDSSLinkState                                    
00801e20  SOC_setMMWaveMSSLinkState                                    
00801e80  SOC_unhaltBSS                                                
00801ee0  SOC_waitBSSPowerUp                                           
00801f40  __c6xabi_llshru                                              
00801fa0  _subcull                                                     
00802000  ti_sysbios_family_c64p_Hwi_switchAndDispatch__I              
00802060  lseek                                                        
008020c0  mmwDemo_cfgRxSaturationMonitor                               
00802120  mmwDemo_cfgRxSigImgMonitor                                   
00802180  rlDeviceGetMssVersion                                        
008021e0  rlDriverConstructInMsg                                       
00802240  rlEnableContMode                                             
008022a0  rlRfAnaMonConfig                                             
00802300  rlRfRunTimeCalibConfig                                       
00802360  rlRfRxIfSatMonConfig                                         
008023c0  rlRfRxSigImgMonConfig                                        
00802420  rlSensorStart                                                
00802480  ti_sysbios_BIOS_errorRaiseHook__I                            
008024e0  ti_sysbios_BIOS_removeRTSLock__I                             
00802540  ti_sysbios_BIOS_startFunc__I                                 
008025a0  ti_sysbios_family_c62_TaskSupport_start__E                   
008025a0  ti_sysbios_knl_Task_SupportProxy_start__E                    
00802600  ti_sysbios_family_c64p_Cache_setMar__E                       
00802660  ti_sysbios_family_c64p_Cache_setSize__E                      
008026c0  ti_sysbios_family_c64p_EventCombiner_Module_startup__E       
00802720  ti_sysbios_family_c64p_EventCombiner_unused__E               
00802780  ti_sysbios_gates_GateMutex_Object__delete__S                 
008027e0  ti_sysbios_knl_Clock_Module_startup__E                       
00802840  ti_sysbios_knl_Event_pendTimeout__I                          
008028a0  ti_sysbios_knl_Queue_construct                               
00802900  ti_sysbios_knl_Semaphore_Object__delete__S                   
00802960  ti_sysbios_knl_Semaphore_construct                           
008029c0  ti_sysbios_knl_Semaphore_pendTimeout__I                      
00802a20  ti_sysbios_knl_Task_enter__I                                 
00802a80  ti_sysbios_knl_Task_getMode__E                               
00802ae0  ti_sysbios_knl_Task_restoreHwi__E                            
00802b40  ti_sysbios_knl_Task_restore__E                               
00802ba0  malloc                                                       
00802c00  write                                                        
00802c60  xdc_runtime_Memory_valloc__E                                 
00802cc0  xdc_runtime_Text_cordText__E                                 
00802d60  CBUFF_finalizeLVDSLinkListParams                             
00803220  EDMA3DisableDmaEvt                                           
00803260  EDMA3MapQdmaChToPaRAM                                        
008032a0  EDMA3SetPaRAM                                                
008032e0  EDMA3SetQdmaTrigWord                                         
00803320  HwiP_create                                                  
00803360  HwiP_delete                                                  
008033a0  MMWave_deviceSyncFxn                                         
008033e0  MMWave_encodeError                                           
00803420  MMWave_listAdd                                               
00803460  MMWave_listRemove                                            
008034a0  MMWave_osalMutexLock                                         
008034e0  MMWave_osalSemWait                                           
008035e0  MmwDemo_dataPathInit1Dstate                                  
008036a0  MmwDemo_edmaErrorCallbackFxn                                 
008036e0  MmwDemo_edmaTransferControllerErrorCallbackFxn               
00803760  MmwDemo_pow2roundup                                          
008037a0  SOC_getInAddr_LUTType                                        
008037e0  SOC_getOutAddr_LUTType                                       
00803820  SOC_isMMWaveDSSOperational                                   
00803860  SOC_isMMWaveMSSOperational                                   
008038a0  SOC_microDelay                                               
008038e0  __TI_frcmpyd_div                                             
00803920  __c6xabi_strasgi_64plus                                      
00803920  __strasgi_64plus                                             
00803960  _args_main                                                   
008039a0  ti_sysbios_family_c62_TaskSupport_buildTaskStack             
008039e0  free                                                         
00803a20  log10                                                        
00803a20  log10l                                                       
00803a60  rlAppendDummy                                                
00803aa0  rlDeviceGetRfVersion                                         
00803ae0  rlDriverCalCRC                                               
00803b20  ti_sysbios_BIOS_exitFunc__I                                  
00803b60  ti_sysbios_BIOS_rtsLock__I                                   
00803ba0  ti_sysbios_BIOS_rtsUnlock__I                                 
00803be0  ti_sysbios_family_c64p_EventCombiner_disableEvent__E         
00803c20  ti_sysbios_family_c64p_EventCombiner_enableEvent__E          
00803c60  ti_sysbios_family_c64p_Exception_externalHandler__I          
00803ca0  ti_sysbios_family_c64p_Exception_nmiHandler__I               
00803ce0  ti_sysbios_family_c64p_Hwi_disableIER__E                     
00803d20  ti_sysbios_family_c64p_Hwi_dispatchC__I                      
00803d60  ti_sysbios_family_c64p_Hwi_enableIER__E                      
00803da0  ti_sysbios_family_c64p_Hwi_getEventId__E                     
00803de0  ti_sysbios_gates_GateHwi_Handle__label__S                    
00803de0  xdc_runtime_Main_Module_GateProxy_Handle__label__S           
00803de0  xdc_runtime_System_Module_GateProxy_Handle__label__S         
00803e20  ti_sysbios_gates_GateHwi_Object__delete__S                   
00803e60  ti_sysbios_BIOS_RtsGateProxy_Handle__label__S                
00803e60  ti_sysbios_gates_GateMutex_Handle__label__S                  
00803e60  ti_sysbios_heaps_HeapMem_Module_GateProxy_Handle__label__S   
00803ea0  ti_sysbios_gates_GateMutex_Instance_finalize__E              
00803ee0  ti_sysbios_gates_GateMutex_Instance_init__E                  
00803f20  ti_sysbios_gates_GateMutex_leave__E                          
00803f60  ti_sysbios_heaps_HeapMem_Handle__label__S                    
00803f60  xdc_runtime_Memory_HeapProxy_Handle__label__S                
00803fa0  ti_sysbios_heaps_HeapMem_Object__delete__S                   
00803fe0  ti_sysbios_heaps_HeapMem_Object__get__S                      
00804020  ti_sysbios_knl_Clock_addI__E                                 
00804060  ti_sysbios_knl_Event_Instance_init__E                        
008040a0  ti_sysbios_knl_Event_checkEvents__I                          
008040e0  ti_sysbios_knl_Semaphore_Instance_finalize__E                
00804120  ti_sysbios_knl_Semaphore_destruct                            
00804160  ti_sysbios_knl_Task_Object__get__S                           
008041a0  ti_sysbios_knl_Task_sleepTimeout__I                          
008041e0  ti_sysbios_knl_Task_unblock__E                               
00804220  ti_sysbios_timers_rti_Timer_ackInterrupt__E                  
00804260  ti_sysbios_timers_rti_Timer_checkOverflow__I                 
008042a0  ti_sysbios_utils_Load_getTaskLoad__E                         
008042e0  xdc_runtime_Error_check__E                                   
00804320  xdc_runtime_Error_init__E                                    
00804360  xdc_runtime_Registry_findById__E                             
008043a0  xdc_runtime_System_abort__E                                  
008043e0  xdc_runtime_System_aprintf__E                                
00804420  xdc_runtime_System_exit__E                                   
00804460  xdc_runtime_System_printf__E                                 
008044a0  ADCBuf_Params_init                                           
008044c0  ADCBuf_control                                               
008044e0  ADCBuf_getChanBufAddr                                        
00804500  CBUFF_deinitLVDS                                             
00804520  CRC_initConfigParams                                         
00804560  EDMA3ChannelToParamMap                                       
00804580  EDMA3ClrCCErr                                                
008045a0  EDMA3DisableQdmaEvt                                          
008045c0  EDMA3EnableQdmaEvt                                           
008045e0  EDMA3ErrIntrHighStatusGet                                    
00804600  EDMA3GetCCErrStatus                                          
00804620  EDMA3GetErrIntrStatus                                        
00804640  EDMA3GetIntrStatus                                           
00804660  EDMA3IntrStatusHighGet                                       
00804680  EDMA3QdmaClrMissEvt                                          
008046a0  EDMA3QdmaGetErrIntrStatus                                    
008046c0  EDMA_getNumInstances                                         
008046e0  EDMAsetRegion                                                
00804700  HwiP_Params_init                                             
00804720  HwiP_disable                                                 
00804740  HwiP_disableInterrupt                                        
00804760  HwiP_enableInterrupt                                         
00804780  HwiP_restore                                                 
008047a0  MMWave_decodeErrorLevel                                      
008047c0  MMWave_deviceGetDeviceInfo                                   
00804840  MMWave_listGetHead                                           
00804860  MMWave_listGetNext                                           
00804900  MMWave_osalMutexDelete                                       
00804920  MMWave_osalMutexUnlock                                       
00804940  MMWave_osalSemDelete                                         
00804960  MMWave_osalSemSignal                                         
008049e0  MemoryP_ctrlAlloc                                            
00804a00  MemoryP_ctrlFree                                             
00804a60  MmwDemo_mboxCallback                                         
00804a80  MmwDemo_sleep                                                
00804aa0  SemaphoreP_Params_init                                       
00804ac0  SemaphoreP_delete                                            
00804ae0  SemaphoreP_pend                                              
00804b00  SemaphoreP_post                                              
00804b00  SemaphoreP_postFromClock                                     
00804b00  SemaphoreP_postFromISR                                       
00804b20  _DebugP_assert                                               
00804b40  __c6xabi_errno_addr                                          
00804b60  __c6xabi_pop_rts                                             
00804b60  __pop_rts                                                    
00804b80  __c6xabi_push_rts                                            
00804b80  __push_rts                                                   
00804ba0  __xdc__init                                                  
00804bc0  _nop                                                         
00804be0  _register_lock                                               
00804c00  _register_unlock                                             
00804c20  ti_sysbios_family_c62_TaskSupport_glue                       
00804c40  C$$EXIT                                                      
00804c40  abort                                                        
00804c40  xdc_runtime_System_abortStd__E                               
00804c60  putchar                                                      
00804c80  rlDriverGetHandle                                            
00804ca0  rlDriverGetPlatformId                                        
00804cc0  rlDriverIsDeviceMapValid                                     
00804ce0  rlGetSubBlockId                                              
00804d00  rlGetSubBlockLen                                             
00804d20  ti_sysbios_BIOS_RtsGateProxy_enter__E                        
00804d40  ti_sysbios_BIOS_RtsGateProxy_leave__E                        
00804d60  ti_sysbios_BIOS_getCpuFreq__E                                
00804d60  ti_sysbios_family_c64p_TimestampProvider_getFreq__E          
00804d60  xdc_runtime_Timestamp_SupportProxy_getFreq__E                
00804d80  ti_sysbios_BIOS_linkedWithIncorrectBootLibrary__E            
00804da0  ti_sysbios_BIOS_nullFunc__I                                  
00804dc0  ti_sysbios_BIOS_setThreadType__E                             
00804de0  ti_sysbios_BIOS_start__E                                     
00804e00  ti_sysbios_family_c62_TaskSupport_Module__startupDone__S     
00804e00  ti_sysbios_knl_Task_SupportProxy_Module__startupDone__S      
00804e20  ti_sysbios_family_c62_TaskSupport_checkStack__E              
00804e20  ti_sysbios_knl_Task_SupportProxy_checkStack__E               
00804e40  ti_sysbios_family_c62_TaskSupport_getStackAlignment__E       
00804e40  ti_sysbios_knl_Task_SupportProxy_getStackAlignment__E        
00804e60  ti_sysbios_family_c64p_Hwi_Module__startupDone__F            
00804e60  ti_sysbios_family_c64p_Hwi_Module__startupDone__S            
00804e60  ti_sysbios_hal_Hwi_HwiProxy_Module__startupDone__S           
00804e80  ti_sysbios_family_c64p_Hwi_clearInterrupt__E                 
00804e80  ti_sysbios_hal_Hwi_HwiProxy_clearInterrupt__E                
00804ea0  ti_sysbios_family_c64p_Hwi_disableInterrupt__E               
00804ea0  ti_sysbios_hal_Hwi_HwiProxy_disableInterrupt__E              
00804ec0  ti_sysbios_family_c64p_Hwi_enableInterrupt__E                
00804ec0  ti_sysbios_hal_Hwi_HwiProxy_enableInterrupt__E               
00804ee0  ti_sysbios_family_c64p_Hwi_getIsrStackAddress__I             
00804f00  ti_sysbios_family_c64p_Hwi_startup__E                        
00804f00  ti_sysbios_hal_Hwi_HwiProxy_startup__E                       
00804f20  ti_sysbios_family_c64p_Hwi_switchFromBootStack__E            
00804f20  ti_sysbios_hal_Hwi_HwiProxy_switchFromBootStack__E           
00804f40  ti_sysbios_family_c64p_TimestampProvider_Module_startup__E   
00804f60  ti_sysbios_family_c64p_TimestampProvider_get32__E            
00804f60  xdc_runtime_Timestamp_SupportProxy_get32__E                  
00804f80  ti_sysbios_gates_GateHwi_Instance_init__E                    
00804fa0  ti_sysbios_gates_GateHwi_enter__E                            
00804fc0  ti_sysbios_gates_GateHwi_leave__E                            
00804fe0  ti_sysbios_gates_GateHwi_query__E                            
00804fe0  xdc_runtime_Main_Module_GateProxy_query__E                   
00804fe0  xdc_runtime_System_Module_GateProxy_query__E                 
00805000  ti_sysbios_BIOS_RtsGateProxy_query__E                        
00805000  ti_sysbios_gates_GateMutex_query__E                          
00805000  ti_sysbios_heaps_HeapMem_Module_GateProxy_query__E           
00805020  ti_sysbios_hal_Hwi_Module_startup__E                         
00805040  ti_sysbios_heaps_HeapMem_Module_GateProxy_enter__E           
00805060  ti_sysbios_heaps_HeapMem_Module_GateProxy_leave__E           
00805080  ti_sysbios_heaps_HeapMem_isBlocking__E                       
008050a0  ti_sysbios_heaps_HeapMem_restore__E                          
008050c0  ti_sysbios_knl_Clock_TimerProxy_getMaxTicks__E               
008050e0  ti_sysbios_knl_Clock_removeI__E                              
00805100  ti_sysbios_knl_Clock_startI__E                               
00805120  ti_sysbios_knl_Idle_loop__E                                  
00805140  ti_sysbios_knl_Queue_Instance_init__E                        
00805160  ti_sysbios_knl_Queue_Object__get__S                          
00805180  ti_sysbios_knl_Queue_dequeue__E                              
008051a0  ti_sysbios_knl_Queue_destruct                                
008051c0  ti_sysbios_knl_Queue_empty__E                                
008051e0  ti_sysbios_knl_Queue_enqueue__E                              
00805200  ti_sysbios_knl_Queue_put__E                                  
00805220  ti_sysbios_knl_Semaphore_Params__init__S                     
00805240  ti_sysbios_knl_Semaphore_delete                              
00805260  ti_sysbios_knl_Task_Params__init__S                          
00805280  ti_sysbios_knl_Task_disable__E                               
008052a0  ti_sysbios_knl_Task_enabled__E                               
008052c0  ti_sysbios_knl_Task_startup__E                               
008052e0  ti_sysbios_knl_Clock_TimerProxy_Module__startupDone__S       
008052e0  ti_sysbios_timers_rti_Timer_Module__startupDone__F           
008052e0  ti_sysbios_timers_rti_Timer_Module__startupDone__S           
00805300  ti_sysbios_timers_rti_Timer_getMaxTicks__E                   
00805320  ti_sysbios_timers_rti_Timer_periodicStub__E                  
00805340  ti_sysbios_utils_Load_getCPULoad__E                          
00805360  ti_sysbios_utils_Load_taskRegHook__E                         
00805380  xdc_runtime_Error_getSite__E                                 
008053a0  xdc_runtime_Error_raiseX__E                                  
008053c0  xdc_runtime_Gate_enterSystem__E                              
008053e0  xdc_runtime_Gate_leaveSystem__E                              
00805400  xdc_runtime_Memory_HeapProxy_alloc__E                        
00805420  xdc_runtime_Memory_HeapProxy_free__E                         
00805440  xdc_runtime_Memory_calloc__E                                 
00805460  xdc_runtime_Memory_free__E                                   
00805480  xdc_runtime_Memory_getMaxDefaultTypeAlign__E                 
008054a0  xdc_runtime_Startup_exec__I                                  
008054c0  xdc_runtime_Startup_reset__I                                 
008054e0  xdc_runtime_Startup_rtsDone__E                               
00805500  xdc_runtime_SysStd_exit__E                                   
00805500  xdc_runtime_System_SupportProxy_exit__E                      
00805520  xdc_runtime_SysStd_putch__E                                  
00805520  xdc_runtime_System_SupportProxy_putch__E                     
00805540  xdc_runtime_SysStd_ready__E                                  
00805540  xdc_runtime_System_SupportProxy_ready__E                     
00805560  xdc_runtime_System_Module_GateProxy_enter__E                 
00805580  xdc_runtime_System_Module_GateProxy_leave__E                 
008055a0  xdc_runtime_System_Module_startup__E                         
008055c0  xdc_runtime_System_snprintf_va__E                            
008055c0  xdc_runtime_System_snprintf_va__F                            
008055c0  xdc_runtime_System_vsnprintf__E                              
008055e0  xdc_runtime_Text_ropeText__E                                 
00805600  xdc_runtime_Text_visitRope__I                                
00805620  gMmwL2                                                       
00811620  gCQRxSatMonMemory                                            
00811a20  gCQRxSigImgMemory                                            
00812220  ti_sysbios_heaps_HeapMem_Instance_State_0_buf__A             
00817e08  twiddleTableCommon                                           
008192ec  ti_sysbios_family_c62_TaskSupport_stackAlignment__C          
008192f0  gEdmaHwAttrs                                                 
008195b4  ti_sysbios_knl_Task_Object__PARAMS__C                        
008196a0  ti_sysbios_heaps_HeapMem_Module__FXNS__C                     
008196c8  xdc_runtime_Startup_sfxnTab__A                               
008196f0  Mailbox_defaultCfg                                           
00819714  ti_sysbios_gates_GateHwi_Module__FXNS__C                     
00819738  ti_sysbios_gates_GateMutex_Module__FXNS__C                   
0081975c  ti_sysbios_heaps_HeapMem_Object__PARAMS__C                   
00819780  ti_sysbios_knl_Semaphore_Object__PARAMS__C                   
008197c4  ti_sysbios_gates_GateHwi_Object__DESC__C                     
008197e4  ti_sysbios_gates_GateMutex_Object__DESC__C                   
00819804  ti_sysbios_heaps_HeapMem_Object__DESC__C                     
00819824  ti_sysbios_knl_Event_Object__DESC__C                         
00819844  ti_sysbios_knl_Queue_Object__DESC__C                         
00819864  ti_sysbios_knl_Semaphore_Object__DESC__C                     
00819884  ti_sysbios_knl_Task_Object__DESC__C                          
008198f0  ti_sysbios_gates_GateHwi_Object__PARAMS__C                   
00819908  ti_sysbios_gates_GateMutex_Object__PARAMS__C                 
00819920  ti_sysbios_knl_Event_Object__PARAMS__C                       
00819938  ti_sysbios_knl_Queue_Object__PARAMS__C                       
00819950  ti_sysbios_knl_Task_hooks__A                                 
008199a4  gADCBufFxnTable                                              
008199b8  xdc_runtime_Startup_sfxnRts__A                               
008199cc  ti_sysbios_family_c64p_Cache_E_invalidL1CacheSize__C         
00819a00  gADCBufHwCfg                                                 
00819a10  ti_sysbios_family_c64p_EventCombiner_EVTMASK__C              
00819a2c  ADCBuf_defaultParams                                         
00819a38  ti_sysbios_knl_Idle_funcList__A                              
00819a44  ti_sysbios_family_c64p_Cache_E_invalidL2CacheSize__C         
00819a50  ti_sysbios_knl_Idle_funcList__C                              
00819a58  ti_sysbios_knl_Task_hooks__C                                 
00819a60  xdc_runtime_Startup_firstFxns__A                             
00819a68  xdc_runtime_Startup_firstFxns__C                             
00819a70  xdc_runtime_Startup_lastFxns__C                              
00819a78  ti_sysbios_family_c64p_Cache_MAR0_31__C                      
00819a7c  ti_sysbios_family_c64p_Cache_MAR128_159__C                   
00819a80  ti_sysbios_family_c64p_Cache_MAR160_191__C                   
00819a84  ti_sysbios_family_c64p_Cache_MAR192_223__C                   
00819a88  ti_sysbios_family_c64p_Cache_MAR224_255__C                   
00819a8c  ti_sysbios_family_c64p_Cache_MAR32_63__C                     
00819a90  ti_sysbios_family_c64p_Cache_MAR64_95__C                     
00819a94  ti_sysbios_family_c64p_Cache_MAR96_127__C                    
00819a98  ti_sysbios_family_c64p_EventCombiner_A_invalidEventId__C     
00819a9c  ti_sysbios_family_c64p_EventCombiner_E_unpluggedEvent__C     
00819aa0  ti_sysbios_family_c64p_EventCombiner_Module__diagsEnabled__C 
00819aa4  ti_sysbios_family_c64p_EventCombiner_Module__diagsIncluded__C
00819aa8  ti_sysbios_family_c64p_EventCombiner_Module__diagsMask__C    
00819aac  ti_sysbios_family_c64p_Exception_E_exceptionMax__C           
00819ab0  ti_sysbios_family_c64p_Exception_exceptionHook__C            
00819ab4  ti_sysbios_family_c64p_Exception_externalHook__C             
00819ab8  ti_sysbios_family_c64p_Exception_internalHook__C             
00819abc  ti_sysbios_family_c64p_Exception_nmiHook__C                  
00819ac0  ti_sysbios_family_c64p_Hwi_LD_end__C                         
00819ac4  ti_sysbios_family_c64p_Hwi_LM_begin__C                       
00819ac8  ti_sysbios_family_c64p_Hwi_Module__diagsEnabled__C           
00819acc  ti_sysbios_family_c64p_Hwi_Module__diagsIncluded__C          
00819ad0  ti_sysbios_family_c64p_Hwi_Module__diagsMask__C              
00819ad4  ti_sysbios_family_c64p_Hwi_Module__loggerFxn1__C             
00819ad8  ti_sysbios_family_c64p_Hwi_Module__loggerFxn8__C             
00819adc  ti_sysbios_family_c64p_Hwi_Module__loggerObj__C              
00819ae0  ti_sysbios_gates_GateMutex_A_badContext__C                   
00819ae4  ti_sysbios_gates_GateMutex_Instance_State_sem__O             
00819ae8  ti_sysbios_gates_GateMutex_Module__diagsEnabled__C           
00819aec  ti_sysbios_gates_GateMutex_Module__diagsIncluded__C          
00819af0  ti_sysbios_gates_GateMutex_Module__diagsMask__C              
00819af4  ti_sysbios_hal_Hwi_E_stackOverflow__C                        
00819af8  ti_sysbios_heaps_HeapMem_A_align__C                          
00819afc  ti_sysbios_heaps_HeapMem_A_heapSize__C                       
00819b00  ti_sysbios_heaps_HeapMem_A_invalidFree__C                    
00819b04  ti_sysbios_heaps_HeapMem_A_zeroBlock__C                      
00819b08  ti_sysbios_heaps_HeapMem_E_memory__C                         
00819b0c  ti_sysbios_heaps_HeapMem_Module__diagsEnabled__C             
00819b10  ti_sysbios_heaps_HeapMem_Module__diagsIncluded__C            
00819b14  ti_sysbios_heaps_HeapMem_Module__diagsMask__C                
00819b18  ti_sysbios_heaps_HeapMem_Module__gateObj__C                  
00819b1c  ti_sysbios_heaps_HeapMem_Object__count__C                    
00819b20  ti_sysbios_heaps_HeapMem_reqAlign__C                         
00819b24  ti_sysbios_knl_Clock_LM_begin__C                             
00819b28  ti_sysbios_knl_Clock_LM_tick__C                              
00819b2c  ti_sysbios_knl_Clock_LW_delayed__C                           
00819b30  ti_sysbios_knl_Clock_Module_State_clockQ__O                  
00819b34  ti_sysbios_knl_Clock_Module__diagsEnabled__C                 
00819b38  ti_sysbios_knl_Clock_Module__diagsIncluded__C                
00819b3c  ti_sysbios_knl_Clock_Module__diagsMask__C                    
00819b40  ti_sysbios_knl_Clock_Module__loggerFxn1__C                   
00819b44  ti_sysbios_knl_Clock_Module__loggerFxn2__C                   
00819b48  ti_sysbios_knl_Clock_Module__loggerObj__C                    
00819b4c  ti_sysbios_knl_Event_A_badContext__C                         
00819b50  ti_sysbios_knl_Event_A_eventInUse__C                         
00819b54  ti_sysbios_knl_Event_A_nullEventId__C                        
00819b58  ti_sysbios_knl_Event_A_nullEventMasks__C                     
00819b5c  ti_sysbios_knl_Event_A_pendTaskDisabled__C                   
00819b60  ti_sysbios_knl_Event_Instance_State_pendQ__O                 
00819b64  ti_sysbios_knl_Event_LM_pend__C                              
00819b68  ti_sysbios_knl_Event_LM_post__C                              
00819b6c  ti_sysbios_knl_Event_Module__diagsEnabled__C                 
00819b70  ti_sysbios_knl_Event_Module__diagsIncluded__C                
00819b74  ti_sysbios_knl_Event_Module__diagsMask__C                    
00819b78  ti_sysbios_knl_Event_Module__loggerFxn4__C                   
00819b7c  ti_sysbios_knl_Event_Module__loggerFxn8__C                   
00819b80  ti_sysbios_knl_Event_Module__loggerObj__C                    
00819b84  ti_sysbios_knl_Semaphore_A_badContext__C                     
00819b88  ti_sysbios_knl_Semaphore_A_noEvents__C                       
00819b8c  ti_sysbios_knl_Semaphore_A_overflow__C                       
00819b90  ti_sysbios_knl_Semaphore_A_pendTaskDisabled__C               
00819b94  ti_sysbios_knl_Semaphore_Instance_State_pendQ__O             
00819b98  ti_sysbios_knl_Semaphore_LM_pend__C                          
00819b9c  ti_sysbios_knl_Semaphore_LM_post__C                          
00819ba0  ti_sysbios_knl_Semaphore_Module__diagsEnabled__C             
00819ba4  ti_sysbios_knl_Semaphore_Module__diagsIncluded__C            
00819ba8  ti_sysbios_knl_Semaphore_Module__diagsMask__C                
00819bac  ti_sysbios_knl_Semaphore_Module__loggerFxn2__C               
00819bb0  ti_sysbios_knl_Semaphore_Module__loggerFxn4__C               
00819bb4  ti_sysbios_knl_Semaphore_Module__loggerObj__C                
00819bb8  ti_sysbios_knl_Task_A_badPriority__C                         
00819bbc  ti_sysbios_knl_Task_A_badTaskState__C                        
00819bc0  ti_sysbios_knl_Task_A_badThreadType__C                       
00819bc4  ti_sysbios_knl_Task_A_badTimeout__C                          
00819bc8  ti_sysbios_knl_Task_A_noPendElem__C                          
00819bcc  ti_sysbios_knl_Task_A_sleepTaskDisabled__C                   
00819bd0  ti_sysbios_knl_Task_E_spOutOfBounds__C                       
00819bd4  ti_sysbios_knl_Task_E_stackOverflow__C                       
00819bd8  ti_sysbios_knl_Task_LD_block__C                              
00819bdc  ti_sysbios_knl_Task_LD_exit__C                               
00819be0  ti_sysbios_knl_Task_LD_ready__C                              
00819be4  ti_sysbios_knl_Task_LM_sleep__C                              
00819be8  ti_sysbios_knl_Task_LM_switch__C                             
00819bec  ti_sysbios_knl_Task_Module_State_inactiveQ__O                
00819bf0  ti_sysbios_knl_Task_Module__diagsEnabled__C                  
00819bf4  ti_sysbios_knl_Task_Module__diagsIncluded__C                 
00819bf8  ti_sysbios_knl_Task_Module__diagsMask__C                     
00819bfc  ti_sysbios_knl_Task_Module__loggerFxn2__C                    
00819c00  ti_sysbios_knl_Task_Module__loggerFxn4__C                    
00819c04  ti_sysbios_knl_Task_Module__loggerObj__C                     
00819c08  ti_sysbios_knl_Task_Object__count__C                         
00819c0c  ti_sysbios_knl_Task_Object__heap__C                          
00819c10  ti_sysbios_knl_Task_allBlockedFunc__C                        
00819c14  ti_sysbios_knl_Task_defaultStackHeap__C                      
00819c18  ti_sysbios_knl_Task_defaultStackSize__C                      
00819c1c  ti_sysbios_knl_Task_numConstructedTasks__C                   
00819c20  ti_sysbios_timers_rti_Timer_E_cannotSupport__C               
00819c24  ti_sysbios_timers_rti_Timer_Module__diagsEnabled__C          
00819c28  ti_sysbios_timers_rti_Timer_Module__diagsIncluded__C         
00819c2c  ti_sysbios_timers_rti_Timer_Module__diagsMask__C             
00819c30  ti_sysbios_timers_rti_Timer_numTimerDevices__C               
00819c34  ti_sysbios_timers_rti_Timer_startupNeeded__C                 
00819c38  ti_sysbios_utils_Load_LS_cpuLoad__C                          
00819c3c  ti_sysbios_utils_Load_LS_taskLoad__C                         
00819c40  ti_sysbios_utils_Load_Module_State_taskList__O               
00819c44  ti_sysbios_utils_Load_Module__diagsEnabled__C                
00819c48  ti_sysbios_utils_Load_Module__diagsIncluded__C               
00819c4c  ti_sysbios_utils_Load_Module__diagsMask__C                   
00819c50  ti_sysbios_utils_Load_Module__loggerFxn1__C                  
00819c54  ti_sysbios_utils_Load_Module__loggerFxn4__C                  
00819c58  ti_sysbios_utils_Load_Module__loggerObj__C                   
00819c5c  ti_sysbios_utils_Load_postUpdate__C                          
00819c60  ti_sysbios_utils_Load_windowInMs__C                          
00819c64  xdc_runtime_Assert_E_assertFailed__C                         
00819c68  xdc_runtime_Core_A_initializedParams__C                      
00819c6c  xdc_runtime_Core_Module__diagsEnabled__C                     
00819c70  xdc_runtime_Core_Module__diagsIncluded__C                    
00819c74  xdc_runtime_Core_Module__diagsMask__C                        
00819c78  xdc_runtime_Error_E_memory__C                                
00819c7c  xdc_runtime_Error_Module__diagsEnabled__C                    
00819c80  xdc_runtime_Error_Module__diagsIncluded__C                   
00819c84  xdc_runtime_Error_Module__diagsMask__C                       
00819c88  xdc_runtime_Error_Module__loggerFxn8__C                      
00819c8c  xdc_runtime_Error_Module__loggerObj__C                       
00819c90  xdc_runtime_Error_policyFxn__C                               
00819c94  xdc_runtime_Error_policy__C                                  
00819c98  xdc_runtime_Error_raiseHook__C                               
00819c9c  xdc_runtime_IGateProvider_Interface__BASE__C                 
00819ca0  xdc_runtime_IHeap_Interface__BASE__C                         
00819ca4  xdc_runtime_IModule_Interface__BASE__C                       
00819ca8  xdc_runtime_Log_L_error__C                                   
00819cac  xdc_runtime_Main_Module__diagsEnabled__C                     
00819cb0  xdc_runtime_Main_Module__diagsIncluded__C                    
00819cb4  xdc_runtime_Main_Module__diagsMask__C                        
00819cb8  xdc_runtime_Main_Module__loggerFxn1__C                       
00819cbc  xdc_runtime_Main_Module__loggerFxn2__C                       
00819cc0  xdc_runtime_Main_Module__loggerFxn4__C                       
00819cc4  xdc_runtime_Main_Module__loggerObj__C                        
00819cc8  xdc_runtime_Memory_defaultHeapInstance__C                    
00819ccc  xdc_runtime_Startup_execImpl__C                              
00819cd0  xdc_runtime_Startup_maxPasses__C                             
00819cd4  xdc_runtime_Startup_sfxnRts__C                               
00819cd8  xdc_runtime_Startup_sfxnTab__C                               
00819cdc  xdc_runtime_System_Module__gateObj__C                        
00819ce0  xdc_runtime_System_abortFxn__C                               
00819ce4  xdc_runtime_System_exitFxn__C                                
00819ce8  xdc_runtime_System_extendFxn__C                              
00819cec  xdc_runtime_System_maxAtexitHandlers__C                      
00819cf0  xdc_runtime_Text_charTab__C                                  
00819cf4  xdc_runtime_Text_nameEmpty__C                                
00819cf8  xdc_runtime_Text_nameStatic__C                               
00819cfc  xdc_runtime_Text_nameUnknown__C                              
00819d00  xdc_runtime_Text_nodeTab__A                                  
00819d04  xdc_runtime_Text_visitRopeFxn__C                             
00819d08  ti_sysbios_family_c64p_Cache_Module__id__C                   
00819d0a  ti_sysbios_family_c64p_EventCombiner_Module__id__C           
00819d0c  ti_sysbios_family_c64p_Exception_Module__id__C               
00819d0e  ti_sysbios_family_c64p_Exception_useInternalBuffer__C        
00819d10  ti_sysbios_family_c64p_Hwi_Module__id__C                     
00819d12  ti_sysbios_family_c64p_Hwi_Module__loggerDefined__C          
00819d14  ti_sysbios_gates_GateMutex_Module__id__C                     
00819d16  ti_sysbios_hal_Hwi_Module__id__C                             
00819d18  ti_sysbios_heaps_HeapMem_Module__id__C                       
00819d1a  ti_sysbios_knl_Clock_Module__id__C                           
00819d1c  ti_sysbios_knl_Clock_Module__loggerDefined__C                
00819d1e  ti_sysbios_knl_Event_Module__id__C                           
00819d20  ti_sysbios_knl_Event_Module__loggerDefined__C                
00819d22  ti_sysbios_knl_Semaphore_Module__id__C                       
00819d24  ti_sysbios_knl_Semaphore_Module__loggerDefined__C            
00819d26  ti_sysbios_knl_Task_Module__id__C                            
00819d28  ti_sysbios_knl_Task_Module__loggerDefined__C                 
00819d2a  ti_sysbios_timers_rti_Timer_Module__id__C                    
00819d2c  ti_sysbios_timers_rti_Timer_continueOnSuspend__C             
00819d2e  ti_sysbios_utils_Load_Module__id__C                          
00819d30  ti_sysbios_utils_Load_Module__loggerDefined__C               
00819d32  ti_sysbios_utils_Load_autoAddTasks__C                        
00819d34  ti_sysbios_utils_Load_updateInIdle__C                        
00819d36  xdc_runtime_Core_Module__id__C                               
00819d38  xdc_runtime_Error_Module__loggerDefined__C                   
00819d3a  xdc_runtime_Error_maxDepth__C                                
00819d3c  xdc_runtime_Main_Module__id__C                               
00819d3e  xdc_runtime_Main_Module__loggerDefined__C                    
00819d40  xdc_runtime_Memory_Module__id__C                             
00819d42  xdc_runtime_Text_charCnt__C                                  
00819d44  xdc_runtime_Text_isLoaded__C                                 
00819d46  xdc_runtime_Text_registryModsLastId__C                       
00819d48  xdc_runtime_Text_unnamedModsLastId__C                        
00819d50  xdc_runtime_Text_charTab__A                                  
00819d58  gMmwDssMCB                                                   
0081ad88  ti_sysbios_knl_Task_Instance_State_0_stack__A                
0081b0a8  __TI_tmpnams                                                 
0081b1e8  gMMWave_MCB                                                  
0081b2e0  gHSIHeaderMCB                                                
0081b370  edmaDbg                                                      
0081b380  gCycleLog                                                    
0081b390  gMMWave_XWR16xxMCB                                           
0081b3a0  ti_sysbios_knl_Task_Instance_State_0_hookEnv__A              
0081b3a8  xdc_runtime_Error_IgnoreBlock                                
0081b3c8  ti_sysbios_BIOS_Module__state__V                             
0081b3ec  ti_sysbios_family_c64p_Cache_Module__state__V                
0081b3f0  ti_sysbios_family_c64p_EventCombiner_Module__state__V        
0081b7f0  ti_sysbios_family_c64p_Exception_Module__state__V            
0081b820  ti_sysbios_family_c64p_Hwi_Module__root__V                   
0081b828  ti_sysbios_family_c64p_Hwi_Module__state__V                  
0081b894  ti_sysbios_gates_GateHwi_Module__root__V                     
0081b89c  ti_sysbios_gates_GateMutex_Module__root__V                   
0081b8a4  ti_sysbios_hal_Hwi_Module__root__V                           
0081b8ac  ti_sysbios_heaps_HeapMem_Module__root__V                     
0081b8b4  ti_sysbios_knl_Clock_Module__root__V                         
0081b8bc  ti_sysbios_knl_Clock_Module__state__V                        
0081b8e8  ti_sysbios_knl_Event_Module__root__V                         
0081b8f0  ti_sysbios_knl_Queue_Module__root__V                         
0081b8f8  ti_sysbios_knl_Semaphore_Module__root__V                     
0081b900  ti_sysbios_knl_Task_Module__root__V                          
0081b908  ti_sysbios_knl_Task_Module__state__V                         
0081b94c  ti_sysbios_rts_ti_ThreadLocalStorage_Module__state__V        
0081b958  ti_sysbios_timers_rti_Timer_Module__root__V                  
0081b960  ti_sysbios_timers_rti_Timer_Module__state__V                 
0081b970  ti_sysbios_utils_Load_Module__state__V                       
0081ba08  xdc_runtime_Error_Module__state__V                           
0081ba0c  xdc_runtime_Memory_Module__state__V                          
0081ba10  xdc_runtime_Registry_Module__state__V                        
0081ba18  xdc_runtime_Startup_Module__state__V                         
0081ba20  xdc_runtime_System_Module__state__V                          
0081ba28  xdc_runtime_Text_Module__state__V                            
0081ba30  __xdc__init__addr                                            
0081ba34  D2H_SYNC_PATTERN                                             
0081ba38  H2D_SYNC_PATTERN                                             
0081ba3c  H2D_CNYS_PATTERN                                             
0081bc24  rl_txMsg                                                     
0081bd24  rl_rxMsg                                                     
0081be24  _lock                                                        
0081be28  _ftable                                                      
0081c0a8  ti_sysbios_knl_Task_Module_State_0_readyQ__A                 
0081c1a0  gCBUFFHwAttribute                                            
0081c218  ti_sysbios_family_c64p_Hwi_Object__table__V                  
0081c290  gMailboxMCB                                                  
0081c2e0  ti_sysbios_knl_Task_Object__table__V                         
0081c32c  _unlock                                                      
0081c330  SOC_TranslateAddr_LUT                                        
0081c370  ti_sysbios_gates_GateMutex_Object__table__V                  
0081c3b0  ti_sysbios_timers_rti_Timer_Object__table__V                 
0081c3ec  __TI_ft_end                                                  
0081c3f0  gCBUFFInterfaceFxn                                           
0081c428  gMailboxDssMssHwCfg                                          
0081c440  gMailboxDssBssHwCfg                                          
0081c458  ti_sysbios_utils_Load_Module_State_0_taskEnv__A              
0081c474  __errno                                                      
0081c474  errno                                                        
0081c490  ADCBuf_config                                                
0081c4c0  gInterleavedTransferFxn                                      
0081c4d8  gMultipleChirpNonInterleavedTransferFxn                      
0081c4f0  gNonInterleavedTransferFxn                                   
0081c508  gSOCHwAttrib                                                 
0081c520  ti_sysbios_heaps_HeapMem_Object__table__V                    
0081c538  ti_sysbios_timers_rti_Timer_Module_State_0_device__A         
0081c550  ti_sysbios_timers_rti_Timer_Module_State_0_intFreqs__A       
0081c560  __TI_cleanup_ptr                                             
0081c564  __TI_dtors_ptr                                               
0081c568  __TI_enable_exit_profile_output                              
0081c570  ti_sysbios_hal_Hwi_Object__table__V                          
0081c578  ti_sysbios_timers_rti_Timer_Module_State_0_handles__A        
0081c580  ti_sysbios_gates_GateHwi_Object__table__V                    
0081c588  ti_sysbios_knl_Task_Module_State_0_idleTask__A               
0081c590  ti_sysbios_utils_Load_Module_State_0_runningTask__A          
0081c598  ti_sysbios_utils_Load_Module_State_0_taskStartTime__A        
0081c5a0  _stack                                                       
0081cca0  __TI_STACK_END                                               
0081ce78  __CIOBUF_                                                    
0081cf98  __TI_STATIC_BASE                                             
0081cf9c  gCRCRegister                                                 
0081cfa0  regionId                                                     
0081cfa8  _MmwDemo_fastCode_L1PSRAM_copy_table                         
0081cfa8  __TI_table__MmwDemo_fastCode_L1PSRAM_copy_table              
00e00000  DSP_fft32x32                                                 
00e00380  DSP_fft16x16                                                 
00e00680  mmwavelib_cfarCadB_SOGO                                      
00e00c60  mmwavelib_cfarCadBwrap                                       
00e01060  mmwavelib_log2Abs32                                          
00e01260  mmwavelib_windowing16x16_evenlen                             
00e01440  mmwavelib_dftSingleBinWithWindow                             
00e015e0  mmwavelib_vecsum                                             
00e01680  mmwavelib_windowing16x32                                     
00e01720  mmwavelib_accum16                                            
00e01780  mmwavelib_vecsubc                                            
00e017e0  cossp                                                        
00e01914  sinsp                                                        
00e01a20  sqrtsp                                                       
00e01ac0  divsp                                                        
00e01b20  MmwDemo_interFrameProcessing                                 
00e03220  MmwDemo_interChirpProcessing                                 
00e03440  MmwDemo_XYestimation                                         
00e03760  MmwDemo_cfarPeakGrouping                                     
00f00000  gMmwL1                                                       
20000000  _L3data_start                                                
20000000  gMmwL3                                                       
20003b80  SOC_init                                                     
20004000  main                                                         
20004100  MmwDemo_dataPathInitEdma                                     
21080000  gHSRAM                                                       
ffffffff  __TI_pprof_out_hndl                                          
ffffffff  __TI_prof_data_size                                          
ffffffff  __TI_prof_data_start                                         
ffffffff  __binit__                                                    
ffffffff  __c_args__                                                   
ffffffff  binit                                                        
UNDEFED   __TI_CINIT_Base                                              
UNDEFED   __TI_CINIT_Limit                                             
UNDEFED   __TI_Handler_Table_Base                                      
UNDEFED   __TI_Handler_Table_Limit                                     
UNDEFED   __TI_INITARRAY_Base                                          
UNDEFED   __TI_INITARRAY_Limit                                         
UNDEFED   __TI_TLS_INIT_Base                                           
UNDEFED   __TI_TLS_INIT_Limit                                          

[1013 symbols]
